ARM GAS  /var/folders/gv/t2w3mcd17yl2fynvjl120d0m0000gn/T//cci8eM3F.s 			page 1


   1              		.cpu cortex-m4
   2              		.arch armv7e-m
   3              		.fpu fpv4-sp-d16
   4              		.eabi_attribute 27, 1
   5              		.eabi_attribute 28, 1
   6              		.eabi_attribute 20, 1
   7              		.eabi_attribute 21, 1
   8              		.eabi_attribute 23, 3
   9              		.eabi_attribute 24, 1
  10              		.eabi_attribute 25, 1
  11              		.eabi_attribute 26, 1
  12              		.eabi_attribute 30, 1
  13              		.eabi_attribute 34, 1
  14              		.eabi_attribute 18, 4
  15              		.file	"gpio.c"
  16              		.text
  17              	.Ltext0:
  18              		.cfi_sections	.debug_frame
  19              		.file 1 "Core/Src/gpio.c"
  20              		.section	.text.MX_GPIO_Init,"ax",%progbits
  21              		.align	1
  22              		.global	MX_GPIO_Init
  23              		.syntax unified
  24              		.thumb
  25              		.thumb_func
  27              	MX_GPIO_Init:
  28              	.LFB228:
   1:Core/Src/gpio.c **** /* USER CODE BEGIN Header */
   2:Core/Src/gpio.c **** /**
   3:Core/Src/gpio.c ****   ******************************************************************************
   4:Core/Src/gpio.c ****   * @file    gpio.c
   5:Core/Src/gpio.c ****   * @brief   This file provides code for the configuration
   6:Core/Src/gpio.c ****   *          of all used GPIO pins.
   7:Core/Src/gpio.c ****   ******************************************************************************
   8:Core/Src/gpio.c ****   * @attention
   9:Core/Src/gpio.c ****   *
  10:Core/Src/gpio.c ****   * Copyright (c) 2026 STMicroelectronics.
  11:Core/Src/gpio.c ****   * All rights reserved.
  12:Core/Src/gpio.c ****   *
  13:Core/Src/gpio.c ****   * This software is licensed under terms that can be found in the LICENSE file
  14:Core/Src/gpio.c ****   * in the root directory of this software component.
  15:Core/Src/gpio.c ****   * If no LICENSE file comes with this software, it is provided AS-IS.
  16:Core/Src/gpio.c ****   *
  17:Core/Src/gpio.c ****   ******************************************************************************
  18:Core/Src/gpio.c ****   */
  19:Core/Src/gpio.c **** /* USER CODE END Header */
  20:Core/Src/gpio.c **** 
  21:Core/Src/gpio.c **** /* Includes ------------------------------------------------------------------*/
  22:Core/Src/gpio.c **** #include "gpio.h"
  23:Core/Src/gpio.c **** 
  24:Core/Src/gpio.c **** /* USER CODE BEGIN 0 */
  25:Core/Src/gpio.c **** 
  26:Core/Src/gpio.c **** /* USER CODE END 0 */
  27:Core/Src/gpio.c **** 
  28:Core/Src/gpio.c **** /*----------------------------------------------------------------------------*/
  29:Core/Src/gpio.c **** /* Configure GPIO                                                             */
  30:Core/Src/gpio.c **** /*----------------------------------------------------------------------------*/
ARM GAS  /var/folders/gv/t2w3mcd17yl2fynvjl120d0m0000gn/T//cci8eM3F.s 			page 2


  31:Core/Src/gpio.c **** /* USER CODE BEGIN 1 */
  32:Core/Src/gpio.c **** 
  33:Core/Src/gpio.c **** /* USER CODE END 1 */
  34:Core/Src/gpio.c **** 
  35:Core/Src/gpio.c **** /** Configure pins as
  36:Core/Src/gpio.c ****         * Analog
  37:Core/Src/gpio.c ****         * Input
  38:Core/Src/gpio.c ****         * Output
  39:Core/Src/gpio.c ****         * EVENT_OUT
  40:Core/Src/gpio.c ****         * EXTI
  41:Core/Src/gpio.c ****         * Free pins are configured automatically as Analog (this feature is enabled through
  42:Core/Src/gpio.c ****         * the Code Generation settings)
  43:Core/Src/gpio.c **** */
  44:Core/Src/gpio.c **** void MX_GPIO_Init(void)
  45:Core/Src/gpio.c **** {
  29              		.loc 1 45 1 view -0
  30              		.cfi_startproc
  31              		@ args = 0, pretend = 0, frame = 40
  32              		@ frame_needed = 0, uses_anonymous_args = 0
  33 0000 2DE9F043 		push	{r4, r5, r6, r7, r8, r9, lr}
  34              	.LCFI0:
  35              		.cfi_def_cfa_offset 28
  36              		.cfi_offset 4, -28
  37              		.cfi_offset 5, -24
  38              		.cfi_offset 6, -20
  39              		.cfi_offset 7, -16
  40              		.cfi_offset 8, -12
  41              		.cfi_offset 9, -8
  42              		.cfi_offset 14, -4
  43 0004 8BB0     		sub	sp, sp, #44
  44              	.LCFI1:
  45              		.cfi_def_cfa_offset 72
  46:Core/Src/gpio.c **** 
  47:Core/Src/gpio.c ****   GPIO_InitTypeDef GPIO_InitStruct = {0};
  46              		.loc 1 47 3 view .LVU1
  47              		.loc 1 47 20 is_stmt 0 view .LVU2
  48 0006 05AD     		add	r5, sp, #20
  49 0008 0024     		movs	r4, #0
  50 000a 0594     		str	r4, [sp, #20]
  51 000c 0694     		str	r4, [sp, #24]
  52 000e 0794     		str	r4, [sp, #28]
  53 0010 0894     		str	r4, [sp, #32]
  54 0012 0994     		str	r4, [sp, #36]
  48:Core/Src/gpio.c **** 
  49:Core/Src/gpio.c ****   /* GPIO Ports Clock Enable */
  50:Core/Src/gpio.c ****   __HAL_RCC_GPIOC_CLK_ENABLE();
  55              		.loc 1 50 3 is_stmt 1 view .LVU3
  56              	.LBB2:
  57              		.loc 1 50 3 view .LVU4
  58              		.loc 1 50 3 view .LVU5
  59 0014 5C4B     		ldr	r3, .L3
  60 0016 DA6C     		ldr	r2, [r3, #76]
  61 0018 42F00402 		orr	r2, r2, #4
  62 001c DA64     		str	r2, [r3, #76]
  63              		.loc 1 50 3 view .LVU6
  64 001e DA6C     		ldr	r2, [r3, #76]
  65 0020 02F00402 		and	r2, r2, #4
ARM GAS  /var/folders/gv/t2w3mcd17yl2fynvjl120d0m0000gn/T//cci8eM3F.s 			page 3


  66 0024 0092     		str	r2, [sp]
  67              		.loc 1 50 3 view .LVU7
  68 0026 009A     		ldr	r2, [sp]
  69              	.LBE2:
  70              		.loc 1 50 3 view .LVU8
  51:Core/Src/gpio.c ****   __HAL_RCC_GPIOH_CLK_ENABLE();
  71              		.loc 1 51 3 view .LVU9
  72              	.LBB3:
  73              		.loc 1 51 3 view .LVU10
  74              		.loc 1 51 3 view .LVU11
  75 0028 DA6C     		ldr	r2, [r3, #76]
  76 002a 42F08002 		orr	r2, r2, #128
  77 002e DA64     		str	r2, [r3, #76]
  78              		.loc 1 51 3 view .LVU12
  79 0030 DA6C     		ldr	r2, [r3, #76]
  80 0032 02F08002 		and	r2, r2, #128
  81 0036 0192     		str	r2, [sp, #4]
  82              		.loc 1 51 3 view .LVU13
  83 0038 019A     		ldr	r2, [sp, #4]
  84              	.LBE3:
  85              		.loc 1 51 3 view .LVU14
  52:Core/Src/gpio.c ****   __HAL_RCC_GPIOA_CLK_ENABLE();
  86              		.loc 1 52 3 view .LVU15
  87              	.LBB4:
  88              		.loc 1 52 3 view .LVU16
  89              		.loc 1 52 3 view .LVU17
  90 003a DA6C     		ldr	r2, [r3, #76]
  91 003c 42F00102 		orr	r2, r2, #1
  92 0040 DA64     		str	r2, [r3, #76]
  93              		.loc 1 52 3 view .LVU18
  94 0042 DA6C     		ldr	r2, [r3, #76]
  95 0044 02F00102 		and	r2, r2, #1
  96 0048 0292     		str	r2, [sp, #8]
  97              		.loc 1 52 3 view .LVU19
  98 004a 029A     		ldr	r2, [sp, #8]
  99              	.LBE4:
 100              		.loc 1 52 3 view .LVU20
  53:Core/Src/gpio.c ****   __HAL_RCC_GPIOB_CLK_ENABLE();
 101              		.loc 1 53 3 view .LVU21
 102              	.LBB5:
 103              		.loc 1 53 3 view .LVU22
 104              		.loc 1 53 3 view .LVU23
 105 004c DA6C     		ldr	r2, [r3, #76]
 106 004e 42F00202 		orr	r2, r2, #2
 107 0052 DA64     		str	r2, [r3, #76]
 108              		.loc 1 53 3 view .LVU24
 109 0054 DA6C     		ldr	r2, [r3, #76]
 110 0056 02F00202 		and	r2, r2, #2
 111 005a 0392     		str	r2, [sp, #12]
 112              		.loc 1 53 3 view .LVU25
 113 005c 039A     		ldr	r2, [sp, #12]
 114              	.LBE5:
 115              		.loc 1 53 3 view .LVU26
  54:Core/Src/gpio.c ****   __HAL_RCC_GPIOD_CLK_ENABLE();
 116              		.loc 1 54 3 view .LVU27
 117              	.LBB6:
 118              		.loc 1 54 3 view .LVU28
ARM GAS  /var/folders/gv/t2w3mcd17yl2fynvjl120d0m0000gn/T//cci8eM3F.s 			page 4


 119              		.loc 1 54 3 view .LVU29
 120 005e DA6C     		ldr	r2, [r3, #76]
 121 0060 42F00802 		orr	r2, r2, #8
 122 0064 DA64     		str	r2, [r3, #76]
 123              		.loc 1 54 3 view .LVU30
 124 0066 DB6C     		ldr	r3, [r3, #76]
 125 0068 03F00803 		and	r3, r3, #8
 126 006c 0493     		str	r3, [sp, #16]
 127              		.loc 1 54 3 view .LVU31
 128 006e 049B     		ldr	r3, [sp, #16]
 129              	.LBE6:
 130              		.loc 1 54 3 view .LVU32
  55:Core/Src/gpio.c **** 
  56:Core/Src/gpio.c ****   /*Configure GPIO pin Output Level */
  57:Core/Src/gpio.c ****   HAL_GPIO_WritePin(Battery_LED_GPIO_Port, Battery_LED_Pin, GPIO_PIN_RESET);
 131              		.loc 1 57 3 view .LVU33
 132 0070 464F     		ldr	r7, .L3+4
 133 0072 2246     		mov	r2, r4
 134 0074 0821     		movs	r1, #8
 135 0076 3846     		mov	r0, r7
 136 0078 FFF7FEFF 		bl	HAL_GPIO_WritePin
 137              	.LVL0:
  58:Core/Src/gpio.c **** 
  59:Core/Src/gpio.c ****   /*Configure GPIO pin Output Level */
  60:Core/Src/gpio.c ****   HAL_GPIO_WritePin(GPIOA, Power_Disable_Pin|Error_LED_Pin, GPIO_PIN_RESET);
 138              		.loc 1 60 3 view .LVU34
 139 007c 2246     		mov	r2, r4
 140 007e 4221     		movs	r1, #66
 141 0080 4FF09040 		mov	r0, #1207959552
 142 0084 FFF7FEFF 		bl	HAL_GPIO_WritePin
 143              	.LVL1:
  61:Core/Src/gpio.c **** 
  62:Core/Src/gpio.c ****   /*Configure GPIO pins : PC13 PC14 PC15 PC2
  63:Core/Src/gpio.c ****                            PC4 PC5 PC6 PC7 */
  64:Core/Src/gpio.c ****   GPIO_InitStruct.Pin = GPIO_PIN_13|GPIO_PIN_14|GPIO_PIN_15|GPIO_PIN_2
 144              		.loc 1 64 3 view .LVU35
 145              		.loc 1 64 23 is_stmt 0 view .LVU36
 146 0088 4EF2F403 		movw	r3, #57588
 147 008c 0593     		str	r3, [sp, #20]
  65:Core/Src/gpio.c ****                           |GPIO_PIN_4|GPIO_PIN_5|GPIO_PIN_6|GPIO_PIN_7;
  66:Core/Src/gpio.c ****   GPIO_InitStruct.Mode = GPIO_MODE_ANALOG;
 148              		.loc 1 66 3 is_stmt 1 view .LVU37
 149              		.loc 1 66 24 is_stmt 0 view .LVU38
 150 008e 0326     		movs	r6, #3
 151 0090 0696     		str	r6, [sp, #24]
  67:Core/Src/gpio.c ****   GPIO_InitStruct.Pull = GPIO_NOPULL;
 152              		.loc 1 67 3 is_stmt 1 view .LVU39
 153              		.loc 1 67 24 is_stmt 0 view .LVU40
 154 0092 0794     		str	r4, [sp, #28]
  68:Core/Src/gpio.c ****   HAL_GPIO_Init(GPIOC, &GPIO_InitStruct);
 155              		.loc 1 68 3 is_stmt 1 view .LVU41
 156 0094 2946     		mov	r1, r5
 157 0096 3846     		mov	r0, r7
 158 0098 FFF7FEFF 		bl	HAL_GPIO_Init
 159              	.LVL2:
  69:Core/Src/gpio.c **** 
  70:Core/Src/gpio.c ****   /*Configure GPIO pins : PH0 PH1 */
ARM GAS  /var/folders/gv/t2w3mcd17yl2fynvjl120d0m0000gn/T//cci8eM3F.s 			page 5


  71:Core/Src/gpio.c ****   GPIO_InitStruct.Pin = GPIO_PIN_0|GPIO_PIN_1;
 160              		.loc 1 71 3 view .LVU42
 161              		.loc 1 71 23 is_stmt 0 view .LVU43
 162 009c 0596     		str	r6, [sp, #20]
  72:Core/Src/gpio.c ****   GPIO_InitStruct.Mode = GPIO_MODE_ANALOG;
 163              		.loc 1 72 3 is_stmt 1 view .LVU44
 164              		.loc 1 72 24 is_stmt 0 view .LVU45
 165 009e 0696     		str	r6, [sp, #24]
  73:Core/Src/gpio.c ****   GPIO_InitStruct.Pull = GPIO_NOPULL;
 166              		.loc 1 73 3 is_stmt 1 view .LVU46
 167              		.loc 1 73 24 is_stmt 0 view .LVU47
 168 00a0 0794     		str	r4, [sp, #28]
  74:Core/Src/gpio.c ****   HAL_GPIO_Init(GPIOH, &GPIO_InitStruct);
 169              		.loc 1 74 3 is_stmt 1 view .LVU48
 170 00a2 2946     		mov	r1, r5
 171 00a4 3A48     		ldr	r0, .L3+8
 172 00a6 FFF7FEFF 		bl	HAL_GPIO_Init
 173              	.LVL3:
  75:Core/Src/gpio.c **** 
  76:Core/Src/gpio.c ****   /*Configure GPIO pin : PC0 */
  77:Core/Src/gpio.c ****   GPIO_InitStruct.Pin = GPIO_PIN_0;
 174              		.loc 1 77 3 view .LVU49
 175              		.loc 1 77 23 is_stmt 0 view .LVU50
 176 00aa 4FF00108 		mov	r8, #1
 177 00ae CDF81480 		str	r8, [sp, #20]
  78:Core/Src/gpio.c ****   GPIO_InitStruct.Mode = GPIO_MODE_INPUT;
 178              		.loc 1 78 3 is_stmt 1 view .LVU51
 179              		.loc 1 78 24 is_stmt 0 view .LVU52
 180 00b2 0694     		str	r4, [sp, #24]
  79:Core/Src/gpio.c ****   GPIO_InitStruct.Pull = GPIO_NOPULL;
 181              		.loc 1 79 3 is_stmt 1 view .LVU53
 182              		.loc 1 79 24 is_stmt 0 view .LVU54
 183 00b4 0794     		str	r4, [sp, #28]
  80:Core/Src/gpio.c ****   HAL_GPIO_Init(GPIOC, &GPIO_InitStruct);
 184              		.loc 1 80 3 is_stmt 1 view .LVU55
 185 00b6 2946     		mov	r1, r5
 186 00b8 3846     		mov	r0, r7
 187 00ba FFF7FEFF 		bl	HAL_GPIO_Init
 188              	.LVL4:
  81:Core/Src/gpio.c **** 
  82:Core/Src/gpio.c ****   /*Configure GPIO pin : ACC2_INT_Pin */
  83:Core/Src/gpio.c ****   GPIO_InitStruct.Pin = ACC2_INT_Pin;
 189              		.loc 1 83 3 view .LVU56
 190              		.loc 1 83 23 is_stmt 0 view .LVU57
 191 00be 0223     		movs	r3, #2
 192 00c0 0593     		str	r3, [sp, #20]
  84:Core/Src/gpio.c ****   GPIO_InitStruct.Mode = GPIO_MODE_IT_RISING;
 193              		.loc 1 84 3 is_stmt 1 view .LVU58
 194              		.loc 1 84 24 is_stmt 0 view .LVU59
 195 00c2 4FF48819 		mov	r9, #1114112
 196 00c6 CDF81890 		str	r9, [sp, #24]
  85:Core/Src/gpio.c ****   GPIO_InitStruct.Pull = GPIO_NOPULL;
 197              		.loc 1 85 3 is_stmt 1 view .LVU60
 198              		.loc 1 85 24 is_stmt 0 view .LVU61
 199 00ca 0794     		str	r4, [sp, #28]
  86:Core/Src/gpio.c ****   HAL_GPIO_Init(ACC2_INT_GPIO_Port, &GPIO_InitStruct);
 200              		.loc 1 86 3 is_stmt 1 view .LVU62
ARM GAS  /var/folders/gv/t2w3mcd17yl2fynvjl120d0m0000gn/T//cci8eM3F.s 			page 6


 201 00cc 2946     		mov	r1, r5
 202 00ce 3846     		mov	r0, r7
 203 00d0 FFF7FEFF 		bl	HAL_GPIO_Init
 204              	.LVL5:
  87:Core/Src/gpio.c **** 
  88:Core/Src/gpio.c ****   /*Configure GPIO pin : Battery_LED_Pin */
  89:Core/Src/gpio.c ****   GPIO_InitStruct.Pin = Battery_LED_Pin;
 205              		.loc 1 89 3 view .LVU63
 206              		.loc 1 89 23 is_stmt 0 view .LVU64
 207 00d4 0823     		movs	r3, #8
 208 00d6 0593     		str	r3, [sp, #20]
  90:Core/Src/gpio.c ****   GPIO_InitStruct.Mode = GPIO_MODE_OUTPUT_PP;
 209              		.loc 1 90 3 is_stmt 1 view .LVU65
 210              		.loc 1 90 24 is_stmt 0 view .LVU66
 211 00d8 CDF81880 		str	r8, [sp, #24]
  91:Core/Src/gpio.c ****   GPIO_InitStruct.Pull = GPIO_NOPULL;
 212              		.loc 1 91 3 is_stmt 1 view .LVU67
 213              		.loc 1 91 24 is_stmt 0 view .LVU68
 214 00dc 0794     		str	r4, [sp, #28]
  92:Core/Src/gpio.c ****   GPIO_InitStruct.Speed = GPIO_SPEED_FREQ_LOW;
 215              		.loc 1 92 3 is_stmt 1 view .LVU69
 216              		.loc 1 92 25 is_stmt 0 view .LVU70
 217 00de 0894     		str	r4, [sp, #32]
  93:Core/Src/gpio.c ****   HAL_GPIO_Init(Battery_LED_GPIO_Port, &GPIO_InitStruct);
 218              		.loc 1 93 3 is_stmt 1 view .LVU71
 219 00e0 2946     		mov	r1, r5
 220 00e2 3846     		mov	r0, r7
 221 00e4 FFF7FEFF 		bl	HAL_GPIO_Init
 222              	.LVL6:
  94:Core/Src/gpio.c **** 
  95:Core/Src/gpio.c ****   /*Configure GPIO pin : Acc_Int_Pin */
  96:Core/Src/gpio.c ****   GPIO_InitStruct.Pin = Acc_Int_Pin;
 223              		.loc 1 96 3 view .LVU72
 224              		.loc 1 96 23 is_stmt 0 view .LVU73
 225 00e8 CDF81480 		str	r8, [sp, #20]
  97:Core/Src/gpio.c ****   GPIO_InitStruct.Mode = GPIO_MODE_IT_RISING;
 226              		.loc 1 97 3 is_stmt 1 view .LVU74
 227              		.loc 1 97 24 is_stmt 0 view .LVU75
 228 00ec CDF81890 		str	r9, [sp, #24]
  98:Core/Src/gpio.c ****   GPIO_InitStruct.Pull = GPIO_NOPULL;
 229              		.loc 1 98 3 is_stmt 1 view .LVU76
 230              		.loc 1 98 24 is_stmt 0 view .LVU77
 231 00f0 0794     		str	r4, [sp, #28]
  99:Core/Src/gpio.c ****   HAL_GPIO_Init(Acc_Int_GPIO_Port, &GPIO_InitStruct);
 232              		.loc 1 99 3 is_stmt 1 view .LVU78
 233 00f2 2946     		mov	r1, r5
 234 00f4 4FF09040 		mov	r0, #1207959552
 235 00f8 FFF7FEFF 		bl	HAL_GPIO_Init
 236              	.LVL7:
 100:Core/Src/gpio.c **** 
 101:Core/Src/gpio.c ****   /*Configure GPIO pins : Power_Disable_Pin Error_LED_Pin */
 102:Core/Src/gpio.c ****   GPIO_InitStruct.Pin = Power_Disable_Pin|Error_LED_Pin;
 237              		.loc 1 102 3 view .LVU79
 238              		.loc 1 102 23 is_stmt 0 view .LVU80
 239 00fc 4223     		movs	r3, #66
 240 00fe 0593     		str	r3, [sp, #20]
 103:Core/Src/gpio.c ****   GPIO_InitStruct.Mode = GPIO_MODE_OUTPUT_PP;
ARM GAS  /var/folders/gv/t2w3mcd17yl2fynvjl120d0m0000gn/T//cci8eM3F.s 			page 7


 241              		.loc 1 103 3 is_stmt 1 view .LVU81
 242              		.loc 1 103 24 is_stmt 0 view .LVU82
 243 0100 CDF81880 		str	r8, [sp, #24]
 104:Core/Src/gpio.c ****   GPIO_InitStruct.Pull = GPIO_NOPULL;
 244              		.loc 1 104 3 is_stmt 1 view .LVU83
 245              		.loc 1 104 24 is_stmt 0 view .LVU84
 246 0104 0794     		str	r4, [sp, #28]
 105:Core/Src/gpio.c ****   GPIO_InitStruct.Speed = GPIO_SPEED_FREQ_LOW;
 247              		.loc 1 105 3 is_stmt 1 view .LVU85
 248              		.loc 1 105 25 is_stmt 0 view .LVU86
 249 0106 0894     		str	r4, [sp, #32]
 106:Core/Src/gpio.c ****   HAL_GPIO_Init(GPIOA, &GPIO_InitStruct);
 250              		.loc 1 106 3 is_stmt 1 view .LVU87
 251 0108 2946     		mov	r1, r5
 252 010a 4FF09040 		mov	r0, #1207959552
 253 010e FFF7FEFF 		bl	HAL_GPIO_Init
 254              	.LVL8:
 107:Core/Src/gpio.c **** 
 108:Core/Src/gpio.c ****   /*Configure GPIO pins : PA2 PA3 PA4 PA5
 109:Core/Src/gpio.c ****                            PA7 PA8 PA15 */
 110:Core/Src/gpio.c ****   GPIO_InitStruct.Pin = GPIO_PIN_2|GPIO_PIN_3|GPIO_PIN_4|GPIO_PIN_5
 255              		.loc 1 110 3 view .LVU88
 256              		.loc 1 110 23 is_stmt 0 view .LVU89
 257 0112 48F2BC13 		movw	r3, #33212
 258 0116 0593     		str	r3, [sp, #20]
 111:Core/Src/gpio.c ****                           |GPIO_PIN_7|GPIO_PIN_8|GPIO_PIN_15;
 112:Core/Src/gpio.c ****   GPIO_InitStruct.Mode = GPIO_MODE_ANALOG;
 259              		.loc 1 112 3 is_stmt 1 view .LVU90
 260              		.loc 1 112 24 is_stmt 0 view .LVU91
 261 0118 0696     		str	r6, [sp, #24]
 113:Core/Src/gpio.c ****   GPIO_InitStruct.Pull = GPIO_NOPULL;
 262              		.loc 1 113 3 is_stmt 1 view .LVU92
 263              		.loc 1 113 24 is_stmt 0 view .LVU93
 264 011a 0794     		str	r4, [sp, #28]
 114:Core/Src/gpio.c ****   HAL_GPIO_Init(GPIOA, &GPIO_InitStruct);
 265              		.loc 1 114 3 is_stmt 1 view .LVU94
 266 011c 2946     		mov	r1, r5
 267 011e 4FF09040 		mov	r0, #1207959552
 268 0122 FFF7FEFF 		bl	HAL_GPIO_Init
 269              	.LVL9:
 115:Core/Src/gpio.c **** 
 116:Core/Src/gpio.c ****   /*Configure GPIO pins : PB0 PB1 PB2 PB12
 117:Core/Src/gpio.c ****                            PB13 PB14 PB4 PB5
 118:Core/Src/gpio.c ****                            PB8 */
 119:Core/Src/gpio.c ****   GPIO_InitStruct.Pin = GPIO_PIN_0|GPIO_PIN_1|GPIO_PIN_2|GPIO_PIN_12
 270              		.loc 1 119 3 view .LVU95
 271              		.loc 1 119 23 is_stmt 0 view .LVU96
 272 0126 47F23713 		movw	r3, #28983
 273 012a 0593     		str	r3, [sp, #20]
 120:Core/Src/gpio.c ****                           |GPIO_PIN_13|GPIO_PIN_14|GPIO_PIN_4|GPIO_PIN_5
 121:Core/Src/gpio.c ****                           |GPIO_PIN_8;
 122:Core/Src/gpio.c ****   GPIO_InitStruct.Mode = GPIO_MODE_ANALOG;
 274              		.loc 1 122 3 is_stmt 1 view .LVU97
 275              		.loc 1 122 24 is_stmt 0 view .LVU98
 276 012c 0696     		str	r6, [sp, #24]
 123:Core/Src/gpio.c ****   GPIO_InitStruct.Pull = GPIO_NOPULL;
 277              		.loc 1 123 3 is_stmt 1 view .LVU99
ARM GAS  /var/folders/gv/t2w3mcd17yl2fynvjl120d0m0000gn/T//cci8eM3F.s 			page 8


 278              		.loc 1 123 24 is_stmt 0 view .LVU100
 279 012e 0794     		str	r4, [sp, #28]
 124:Core/Src/gpio.c ****   HAL_GPIO_Init(GPIOB, &GPIO_InitStruct);
 280              		.loc 1 124 3 is_stmt 1 view .LVU101
 281 0130 184E     		ldr	r6, .L3+12
 282 0132 2946     		mov	r1, r5
 283 0134 3046     		mov	r0, r6
 284 0136 FFF7FEFF 		bl	HAL_GPIO_Init
 285              	.LVL10:
 125:Core/Src/gpio.c **** 
 126:Core/Src/gpio.c ****   /*Configure GPIO pin : PB15 */
 127:Core/Src/gpio.c ****   GPIO_InitStruct.Pin = GPIO_PIN_15;
 286              		.loc 1 127 3 view .LVU102
 287              		.loc 1 127 23 is_stmt 0 view .LVU103
 288 013a 4FF40043 		mov	r3, #32768
 289 013e 0593     		str	r3, [sp, #20]
 128:Core/Src/gpio.c ****   GPIO_InitStruct.Mode = GPIO_MODE_INPUT;
 290              		.loc 1 128 3 is_stmt 1 view .LVU104
 291              		.loc 1 128 24 is_stmt 0 view .LVU105
 292 0140 0694     		str	r4, [sp, #24]
 129:Core/Src/gpio.c ****   GPIO_InitStruct.Pull = GPIO_NOPULL;
 293              		.loc 1 129 3 is_stmt 1 view .LVU106
 294              		.loc 1 129 24 is_stmt 0 view .LVU107
 295 0142 0794     		str	r4, [sp, #28]
 130:Core/Src/gpio.c ****   HAL_GPIO_Init(GPIOB, &GPIO_InitStruct);
 296              		.loc 1 130 3 is_stmt 1 view .LVU108
 297 0144 2946     		mov	r1, r5
 298 0146 3046     		mov	r0, r6
 299 0148 FFF7FEFF 		bl	HAL_GPIO_Init
 300              	.LVL11:
 131:Core/Src/gpio.c **** 
 132:Core/Src/gpio.c ****   /*Configure GPIO pins : SD_Detect_Pin PA11 PA12 */
 133:Core/Src/gpio.c ****   GPIO_InitStruct.Pin = SD_Detect_Pin|GPIO_PIN_11|GPIO_PIN_12;
 301              		.loc 1 133 3 view .LVU109
 302              		.loc 1 133 23 is_stmt 0 view .LVU110
 303 014c 4FF4E053 		mov	r3, #7168
 304 0150 0593     		str	r3, [sp, #20]
 134:Core/Src/gpio.c ****   GPIO_InitStruct.Mode = GPIO_MODE_INPUT;
 305              		.loc 1 134 3 is_stmt 1 view .LVU111
 306              		.loc 1 134 24 is_stmt 0 view .LVU112
 307 0152 0694     		str	r4, [sp, #24]
 135:Core/Src/gpio.c ****   GPIO_InitStruct.Pull = GPIO_NOPULL;
 308              		.loc 1 135 3 is_stmt 1 view .LVU113
 309              		.loc 1 135 24 is_stmt 0 view .LVU114
 310 0154 0794     		str	r4, [sp, #28]
 136:Core/Src/gpio.c ****   HAL_GPIO_Init(GPIOA, &GPIO_InitStruct);
 311              		.loc 1 136 3 is_stmt 1 view .LVU115
 312 0156 2946     		mov	r1, r5
 313 0158 4FF09040 		mov	r0, #1207959552
 314 015c FFF7FEFF 		bl	HAL_GPIO_Init
 315              	.LVL12:
 137:Core/Src/gpio.c **** 
 138:Core/Src/gpio.c ****   /* EXTI interrupt init*/
 139:Core/Src/gpio.c ****   HAL_NVIC_SetPriority(EXTI0_IRQn, 0, 0);
 316              		.loc 1 139 3 view .LVU116
 317 0160 2246     		mov	r2, r4
 318 0162 2146     		mov	r1, r4
ARM GAS  /var/folders/gv/t2w3mcd17yl2fynvjl120d0m0000gn/T//cci8eM3F.s 			page 9


 319 0164 0620     		movs	r0, #6
 320 0166 FFF7FEFF 		bl	HAL_NVIC_SetPriority
 321              	.LVL13:
 140:Core/Src/gpio.c ****   HAL_NVIC_EnableIRQ(EXTI0_IRQn);
 322              		.loc 1 140 3 view .LVU117
 323 016a 0620     		movs	r0, #6
 324 016c FFF7FEFF 		bl	HAL_NVIC_EnableIRQ
 325              	.LVL14:
 141:Core/Src/gpio.c **** 
 142:Core/Src/gpio.c ****   HAL_NVIC_SetPriority(EXTI1_IRQn, 0, 0);
 326              		.loc 1 142 3 view .LVU118
 327 0170 2246     		mov	r2, r4
 328 0172 2146     		mov	r1, r4
 329 0174 0720     		movs	r0, #7
 330 0176 FFF7FEFF 		bl	HAL_NVIC_SetPriority
 331              	.LVL15:
 143:Core/Src/gpio.c ****   HAL_NVIC_EnableIRQ(EXTI1_IRQn);
 332              		.loc 1 143 3 view .LVU119
 333 017a 0720     		movs	r0, #7
 334 017c FFF7FEFF 		bl	HAL_NVIC_EnableIRQ
 335              	.LVL16:
 144:Core/Src/gpio.c **** 
 145:Core/Src/gpio.c **** }
 336              		.loc 1 145 1 is_stmt 0 view .LVU120
 337 0180 0BB0     		add	sp, sp, #44
 338              	.LCFI2:
 339              		.cfi_def_cfa_offset 28
 340              		@ sp needed
 341 0182 BDE8F083 		pop	{r4, r5, r6, r7, r8, r9, pc}
 342              	.L4:
 343 0186 00BF     		.align	2
 344              	.L3:
 345 0188 00100240 		.word	1073876992
 346 018c 00080048 		.word	1207961600
 347 0190 001C0048 		.word	1207966720
 348 0194 00040048 		.word	1207960576
 349              		.cfi_endproc
 350              	.LFE228:
 352              		.text
 353              	.Letext0:
 354              		.file 2 "Drivers/CMSIS/Device/ST/STM32L4xx/Include/stm32l476xx.h"
 355              		.file 3 "/Applications/ArmGNUToolchain/15.2.rel1/arm-none-eabi/arm-none-eabi/include/machine/_defa
 356              		.file 4 "/Applications/ArmGNUToolchain/15.2.rel1/arm-none-eabi/arm-none-eabi/include/sys/_stdint.h
 357              		.file 5 "Drivers/STM32L4xx_HAL_Driver/Inc/stm32l4xx_hal_gpio.h"
 358              		.file 6 "Drivers/STM32L4xx_HAL_Driver/Inc/stm32l4xx_hal_cortex.h"
 359              		.file 7 "Drivers/STM32L4xx_HAL_Driver/Inc/stm32l4xx_ll_dma.h"
ARM GAS  /var/folders/gv/t2w3mcd17yl2fynvjl120d0m0000gn/T//cci8eM3F.s 			page 10

