ARM GAS  /var/folders/gv/t2w3mcd17yl2fynvjl120d0m0000gn/T//ccdsAsHO.s 			page 1


   1              		.cpu cortex-m4
   2              		.arch armv7e-m
   3              		.fpu fpv4-sp-d16
   4              		.eabi_attribute 27, 1
   5              		.eabi_attribute 28, 1
   6              		.eabi_attribute 20, 1
   7              		.eabi_attribute 21, 1
   8              		.eabi_attribute 23, 3
   9              		.eabi_attribute 24, 1
  10              		.eabi_attribute 25, 1
  11              		.eabi_attribute 26, 1
  12              		.eabi_attribute 30, 1
  13              		.eabi_attribute 34, 1
  14              		.eabi_attribute 18, 4
  15              		.file	"i2c.c"
  16              		.text
  17              	.Ltext0:
  18              		.cfi_sections	.debug_frame
  19              		.file 1 "Core/Src/i2c.c"
  20              		.section	.text.MX_I2C1_Init,"ax",%progbits
  21              		.align	1
  22              		.global	MX_I2C1_Init
  23              		.syntax unified
  24              		.thumb
  25              		.thumb_func
  27              	MX_I2C1_Init:
  28              	.LFB228:
   1:Core/Src/i2c.c **** /* USER CODE BEGIN Header */
   2:Core/Src/i2c.c **** /**
   3:Core/Src/i2c.c ****   ******************************************************************************
   4:Core/Src/i2c.c ****   * @file    i2c.c
   5:Core/Src/i2c.c ****   * @brief   This file provides code for the configuration
   6:Core/Src/i2c.c ****   *          of the I2C instances.
   7:Core/Src/i2c.c ****   ******************************************************************************
   8:Core/Src/i2c.c ****   * @attention
   9:Core/Src/i2c.c ****   *
  10:Core/Src/i2c.c ****   * Copyright (c) 2026 STMicroelectronics.
  11:Core/Src/i2c.c ****   * All rights reserved.
  12:Core/Src/i2c.c ****   *
  13:Core/Src/i2c.c ****   * This software is licensed under terms that can be found in the LICENSE file
  14:Core/Src/i2c.c ****   * in the root directory of this software component.
  15:Core/Src/i2c.c ****   * If no LICENSE file comes with this software, it is provided AS-IS.
  16:Core/Src/i2c.c ****   *
  17:Core/Src/i2c.c ****   ******************************************************************************
  18:Core/Src/i2c.c ****   */
  19:Core/Src/i2c.c **** /* USER CODE END Header */
  20:Core/Src/i2c.c **** /* Includes ------------------------------------------------------------------*/
  21:Core/Src/i2c.c **** #include "i2c.h"
  22:Core/Src/i2c.c **** 
  23:Core/Src/i2c.c **** /* USER CODE BEGIN 0 */
  24:Core/Src/i2c.c **** 
  25:Core/Src/i2c.c **** /* USER CODE END 0 */
  26:Core/Src/i2c.c **** 
  27:Core/Src/i2c.c **** I2C_HandleTypeDef hi2c1;
  28:Core/Src/i2c.c **** I2C_HandleTypeDef hi2c2;
  29:Core/Src/i2c.c **** 
  30:Core/Src/i2c.c **** /* I2C1 init function */
ARM GAS  /var/folders/gv/t2w3mcd17yl2fynvjl120d0m0000gn/T//ccdsAsHO.s 			page 2


  31:Core/Src/i2c.c **** void MX_I2C1_Init(void)
  32:Core/Src/i2c.c **** {
  29              		.loc 1 32 1 view -0
  30              		.cfi_startproc
  31              		@ args = 0, pretend = 0, frame = 0
  32              		@ frame_needed = 0, uses_anonymous_args = 0
  33 0000 08B5     		push	{r3, lr}
  34              	.LCFI0:
  35              		.cfi_def_cfa_offset 8
  36              		.cfi_offset 3, -8
  37              		.cfi_offset 14, -4
  33:Core/Src/i2c.c **** 
  34:Core/Src/i2c.c ****   /* USER CODE BEGIN I2C1_Init 0 */
  35:Core/Src/i2c.c **** 
  36:Core/Src/i2c.c ****   /* USER CODE END I2C1_Init 0 */
  37:Core/Src/i2c.c **** 
  38:Core/Src/i2c.c ****   /* USER CODE BEGIN I2C1_Init 1 */
  39:Core/Src/i2c.c **** 
  40:Core/Src/i2c.c ****   /* USER CODE END I2C1_Init 1 */
  41:Core/Src/i2c.c ****   hi2c1.Instance = I2C1;
  38              		.loc 1 41 3 view .LVU1
  39              		.loc 1 41 18 is_stmt 0 view .LVU2
  40 0002 1248     		ldr	r0, .L9
  41 0004 124B     		ldr	r3, .L9+4
  42 0006 0360     		str	r3, [r0]
  42:Core/Src/i2c.c ****   hi2c1.Init.Timing = 0x10D19CE4;
  43              		.loc 1 42 3 is_stmt 1 view .LVU3
  44              		.loc 1 42 21 is_stmt 0 view .LVU4
  45 0008 124B     		ldr	r3, .L9+8
  46 000a 4360     		str	r3, [r0, #4]
  43:Core/Src/i2c.c ****   hi2c1.Init.OwnAddress1 = 0;
  47              		.loc 1 43 3 is_stmt 1 view .LVU5
  48              		.loc 1 43 26 is_stmt 0 view .LVU6
  49 000c 0023     		movs	r3, #0
  50 000e 8360     		str	r3, [r0, #8]
  44:Core/Src/i2c.c ****   hi2c1.Init.AddressingMode = I2C_ADDRESSINGMODE_7BIT;
  51              		.loc 1 44 3 is_stmt 1 view .LVU7
  52              		.loc 1 44 29 is_stmt 0 view .LVU8
  53 0010 0122     		movs	r2, #1
  54 0012 C260     		str	r2, [r0, #12]
  45:Core/Src/i2c.c ****   hi2c1.Init.DualAddressMode = I2C_DUALADDRESS_DISABLE;
  55              		.loc 1 45 3 is_stmt 1 view .LVU9
  56              		.loc 1 45 30 is_stmt 0 view .LVU10
  57 0014 0361     		str	r3, [r0, #16]
  46:Core/Src/i2c.c ****   hi2c1.Init.OwnAddress2 = 0;
  58              		.loc 1 46 3 is_stmt 1 view .LVU11
  59              		.loc 1 46 26 is_stmt 0 view .LVU12
  60 0016 4361     		str	r3, [r0, #20]
  47:Core/Src/i2c.c ****   hi2c1.Init.OwnAddress2Masks = I2C_OA2_NOMASK;
  61              		.loc 1 47 3 is_stmt 1 view .LVU13
  62              		.loc 1 47 31 is_stmt 0 view .LVU14
  63 0018 8361     		str	r3, [r0, #24]
  48:Core/Src/i2c.c ****   hi2c1.Init.GeneralCallMode = I2C_GENERALCALL_DISABLE;
  64              		.loc 1 48 3 is_stmt 1 view .LVU15
  65              		.loc 1 48 30 is_stmt 0 view .LVU16
  66 001a C361     		str	r3, [r0, #28]
  49:Core/Src/i2c.c ****   hi2c1.Init.NoStretchMode = I2C_NOSTRETCH_DISABLE;
ARM GAS  /var/folders/gv/t2w3mcd17yl2fynvjl120d0m0000gn/T//ccdsAsHO.s 			page 3


  67              		.loc 1 49 3 is_stmt 1 view .LVU17
  68              		.loc 1 49 28 is_stmt 0 view .LVU18
  69 001c 0362     		str	r3, [r0, #32]
  50:Core/Src/i2c.c ****   if (HAL_I2C_Init(&hi2c1) != HAL_OK)
  70              		.loc 1 50 3 is_stmt 1 view .LVU19
  71              		.loc 1 50 7 is_stmt 0 view .LVU20
  72 001e FFF7FEFF 		bl	HAL_I2C_Init
  73              	.LVL0:
  74              		.loc 1 50 6 discriminator 1 view .LVU21
  75 0022 50B9     		cbnz	r0, .L6
  76              	.L2:
  51:Core/Src/i2c.c ****   {
  52:Core/Src/i2c.c ****     Error_Handler();
  53:Core/Src/i2c.c ****   }
  54:Core/Src/i2c.c **** 
  55:Core/Src/i2c.c ****   /** Configure Analogue filter
  56:Core/Src/i2c.c ****   */
  57:Core/Src/i2c.c ****   if (HAL_I2CEx_ConfigAnalogFilter(&hi2c1, I2C_ANALOGFILTER_ENABLE) != HAL_OK)
  77              		.loc 1 57 3 is_stmt 1 view .LVU22
  78              		.loc 1 57 7 is_stmt 0 view .LVU23
  79 0024 0021     		movs	r1, #0
  80 0026 0948     		ldr	r0, .L9
  81 0028 FFF7FEFF 		bl	HAL_I2CEx_ConfigAnalogFilter
  82              	.LVL1:
  83              		.loc 1 57 6 discriminator 1 view .LVU24
  84 002c 40B9     		cbnz	r0, .L7
  85              	.L3:
  58:Core/Src/i2c.c ****   {
  59:Core/Src/i2c.c ****     Error_Handler();
  60:Core/Src/i2c.c ****   }
  61:Core/Src/i2c.c **** 
  62:Core/Src/i2c.c ****   /** Configure Digital filter
  63:Core/Src/i2c.c ****   */
  64:Core/Src/i2c.c ****   if (HAL_I2CEx_ConfigDigitalFilter(&hi2c1, 0) != HAL_OK)
  86              		.loc 1 64 3 is_stmt 1 view .LVU25
  87              		.loc 1 64 7 is_stmt 0 view .LVU26
  88 002e 0021     		movs	r1, #0
  89 0030 0648     		ldr	r0, .L9
  90 0032 FFF7FEFF 		bl	HAL_I2CEx_ConfigDigitalFilter
  91              	.LVL2:
  92              		.loc 1 64 6 discriminator 1 view .LVU27
  93 0036 30B9     		cbnz	r0, .L8
  94              	.L1:
  65:Core/Src/i2c.c ****   {
  66:Core/Src/i2c.c ****     Error_Handler();
  67:Core/Src/i2c.c ****   }
  68:Core/Src/i2c.c ****   /* USER CODE BEGIN I2C1_Init 2 */
  69:Core/Src/i2c.c **** 
  70:Core/Src/i2c.c ****   /* USER CODE END I2C1_Init 2 */
  71:Core/Src/i2c.c **** 
  72:Core/Src/i2c.c **** }
  95              		.loc 1 72 1 view .LVU28
  96 0038 08BD     		pop	{r3, pc}
  97              	.L6:
  52:Core/Src/i2c.c ****   }
  98              		.loc 1 52 5 is_stmt 1 view .LVU29
  99 003a FFF7FEFF 		bl	Error_Handler
ARM GAS  /var/folders/gv/t2w3mcd17yl2fynvjl120d0m0000gn/T//ccdsAsHO.s 			page 4


 100              	.LVL3:
 101 003e F1E7     		b	.L2
 102              	.L7:
  59:Core/Src/i2c.c ****   }
 103              		.loc 1 59 5 view .LVU30
 104 0040 FFF7FEFF 		bl	Error_Handler
 105              	.LVL4:
 106 0044 F3E7     		b	.L3
 107              	.L8:
  66:Core/Src/i2c.c ****   }
 108              		.loc 1 66 5 view .LVU31
 109 0046 FFF7FEFF 		bl	Error_Handler
 110              	.LVL5:
 111              		.loc 1 72 1 is_stmt 0 view .LVU32
 112 004a F5E7     		b	.L1
 113              	.L10:
 114              		.align	2
 115              	.L9:
 116 004c 00000000 		.word	hi2c1
 117 0050 00540040 		.word	1073763328
 118 0054 E49CD110 		.word	282172644
 119              		.cfi_endproc
 120              	.LFE228:
 122              		.section	.text.MX_I2C2_Init,"ax",%progbits
 123              		.align	1
 124              		.global	MX_I2C2_Init
 125              		.syntax unified
 126              		.thumb
 127              		.thumb_func
 129              	MX_I2C2_Init:
 130              	.LFB229:
  73:Core/Src/i2c.c **** /* I2C2 init function */
  74:Core/Src/i2c.c **** void MX_I2C2_Init(void)
  75:Core/Src/i2c.c **** {
 131              		.loc 1 75 1 is_stmt 1 view -0
 132              		.cfi_startproc
 133              		@ args = 0, pretend = 0, frame = 0
 134              		@ frame_needed = 0, uses_anonymous_args = 0
 135 0000 08B5     		push	{r3, lr}
 136              	.LCFI1:
 137              		.cfi_def_cfa_offset 8
 138              		.cfi_offset 3, -8
 139              		.cfi_offset 14, -4
  76:Core/Src/i2c.c **** 
  77:Core/Src/i2c.c ****   /* USER CODE BEGIN I2C2_Init 0 */
  78:Core/Src/i2c.c **** 
  79:Core/Src/i2c.c ****   /* USER CODE END I2C2_Init 0 */
  80:Core/Src/i2c.c **** 
  81:Core/Src/i2c.c ****   /* USER CODE BEGIN I2C2_Init 1 */
  82:Core/Src/i2c.c **** 
  83:Core/Src/i2c.c ****   /* USER CODE END I2C2_Init 1 */
  84:Core/Src/i2c.c ****   hi2c2.Instance = I2C2;
 140              		.loc 1 84 3 view .LVU34
 141              		.loc 1 84 18 is_stmt 0 view .LVU35
 142 0002 1248     		ldr	r0, .L19
 143 0004 124B     		ldr	r3, .L19+4
 144 0006 0360     		str	r3, [r0]
ARM GAS  /var/folders/gv/t2w3mcd17yl2fynvjl120d0m0000gn/T//ccdsAsHO.s 			page 5


  85:Core/Src/i2c.c ****   hi2c2.Init.Timing = 0x10D19CE4;
 145              		.loc 1 85 3 is_stmt 1 view .LVU36
 146              		.loc 1 85 21 is_stmt 0 view .LVU37
 147 0008 124B     		ldr	r3, .L19+8
 148 000a 4360     		str	r3, [r0, #4]
  86:Core/Src/i2c.c ****   hi2c2.Init.OwnAddress1 = 0;
 149              		.loc 1 86 3 is_stmt 1 view .LVU38
 150              		.loc 1 86 26 is_stmt 0 view .LVU39
 151 000c 0023     		movs	r3, #0
 152 000e 8360     		str	r3, [r0, #8]
  87:Core/Src/i2c.c ****   hi2c2.Init.AddressingMode = I2C_ADDRESSINGMODE_7BIT;
 153              		.loc 1 87 3 is_stmt 1 view .LVU40
 154              		.loc 1 87 29 is_stmt 0 view .LVU41
 155 0010 0122     		movs	r2, #1
 156 0012 C260     		str	r2, [r0, #12]
  88:Core/Src/i2c.c ****   hi2c2.Init.DualAddressMode = I2C_DUALADDRESS_DISABLE;
 157              		.loc 1 88 3 is_stmt 1 view .LVU42
 158              		.loc 1 88 30 is_stmt 0 view .LVU43
 159 0014 0361     		str	r3, [r0, #16]
  89:Core/Src/i2c.c ****   hi2c2.Init.OwnAddress2 = 0;
 160              		.loc 1 89 3 is_stmt 1 view .LVU44
 161              		.loc 1 89 26 is_stmt 0 view .LVU45
 162 0016 4361     		str	r3, [r0, #20]
  90:Core/Src/i2c.c ****   hi2c2.Init.OwnAddress2Masks = I2C_OA2_NOMASK;
 163              		.loc 1 90 3 is_stmt 1 view .LVU46
 164              		.loc 1 90 31 is_stmt 0 view .LVU47
 165 0018 8361     		str	r3, [r0, #24]
  91:Core/Src/i2c.c ****   hi2c2.Init.GeneralCallMode = I2C_GENERALCALL_DISABLE;
 166              		.loc 1 91 3 is_stmt 1 view .LVU48
 167              		.loc 1 91 30 is_stmt 0 view .LVU49
 168 001a C361     		str	r3, [r0, #28]
  92:Core/Src/i2c.c ****   hi2c2.Init.NoStretchMode = I2C_NOSTRETCH_DISABLE;
 169              		.loc 1 92 3 is_stmt 1 view .LVU50
 170              		.loc 1 92 28 is_stmt 0 view .LVU51
 171 001c 0362     		str	r3, [r0, #32]
  93:Core/Src/i2c.c ****   if (HAL_I2C_Init(&hi2c2) != HAL_OK)
 172              		.loc 1 93 3 is_stmt 1 view .LVU52
 173              		.loc 1 93 7 is_stmt 0 view .LVU53
 174 001e FFF7FEFF 		bl	HAL_I2C_Init
 175              	.LVL6:
 176              		.loc 1 93 6 discriminator 1 view .LVU54
 177 0022 50B9     		cbnz	r0, .L16
 178              	.L12:
  94:Core/Src/i2c.c ****   {
  95:Core/Src/i2c.c ****     Error_Handler();
  96:Core/Src/i2c.c ****   }
  97:Core/Src/i2c.c **** 
  98:Core/Src/i2c.c ****   /** Configure Analogue filter
  99:Core/Src/i2c.c ****   */
 100:Core/Src/i2c.c ****   if (HAL_I2CEx_ConfigAnalogFilter(&hi2c2, I2C_ANALOGFILTER_ENABLE) != HAL_OK)
 179              		.loc 1 100 3 is_stmt 1 view .LVU55
 180              		.loc 1 100 7 is_stmt 0 view .LVU56
 181 0024 0021     		movs	r1, #0
 182 0026 0948     		ldr	r0, .L19
 183 0028 FFF7FEFF 		bl	HAL_I2CEx_ConfigAnalogFilter
 184              	.LVL7:
 185              		.loc 1 100 6 discriminator 1 view .LVU57
ARM GAS  /var/folders/gv/t2w3mcd17yl2fynvjl120d0m0000gn/T//ccdsAsHO.s 			page 6


 186 002c 40B9     		cbnz	r0, .L17
 187              	.L13:
 101:Core/Src/i2c.c ****   {
 102:Core/Src/i2c.c ****     Error_Handler();
 103:Core/Src/i2c.c ****   }
 104:Core/Src/i2c.c **** 
 105:Core/Src/i2c.c ****   /** Configure Digital filter
 106:Core/Src/i2c.c ****   */
 107:Core/Src/i2c.c ****   if (HAL_I2CEx_ConfigDigitalFilter(&hi2c2, 0) != HAL_OK)
 188              		.loc 1 107 3 is_stmt 1 view .LVU58
 189              		.loc 1 107 7 is_stmt 0 view .LVU59
 190 002e 0021     		movs	r1, #0
 191 0030 0648     		ldr	r0, .L19
 192 0032 FFF7FEFF 		bl	HAL_I2CEx_ConfigDigitalFilter
 193              	.LVL8:
 194              		.loc 1 107 6 discriminator 1 view .LVU60
 195 0036 30B9     		cbnz	r0, .L18
 196              	.L11:
 108:Core/Src/i2c.c ****   {
 109:Core/Src/i2c.c ****     Error_Handler();
 110:Core/Src/i2c.c ****   }
 111:Core/Src/i2c.c ****   /* USER CODE BEGIN I2C2_Init 2 */
 112:Core/Src/i2c.c **** 
 113:Core/Src/i2c.c ****   /* USER CODE END I2C2_Init 2 */
 114:Core/Src/i2c.c **** 
 115:Core/Src/i2c.c **** }
 197              		.loc 1 115 1 view .LVU61
 198 0038 08BD     		pop	{r3, pc}
 199              	.L16:
  95:Core/Src/i2c.c ****   }
 200              		.loc 1 95 5 is_stmt 1 view .LVU62
 201 003a FFF7FEFF 		bl	Error_Handler
 202              	.LVL9:
 203 003e F1E7     		b	.L12
 204              	.L17:
 102:Core/Src/i2c.c ****   }
 205              		.loc 1 102 5 view .LVU63
 206 0040 FFF7FEFF 		bl	Error_Handler
 207              	.LVL10:
 208 0044 F3E7     		b	.L13
 209              	.L18:
 109:Core/Src/i2c.c ****   }
 210              		.loc 1 109 5 view .LVU64
 211 0046 FFF7FEFF 		bl	Error_Handler
 212              	.LVL11:
 213              		.loc 1 115 1 is_stmt 0 view .LVU65
 214 004a F5E7     		b	.L11
 215              	.L20:
 216              		.align	2
 217              	.L19:
 218 004c 00000000 		.word	hi2c2
 219 0050 00580040 		.word	1073764352
 220 0054 E49CD110 		.word	282172644
 221              		.cfi_endproc
 222              	.LFE229:
 224              		.section	.text.HAL_I2C_MspInit,"ax",%progbits
 225              		.align	1
ARM GAS  /var/folders/gv/t2w3mcd17yl2fynvjl120d0m0000gn/T//ccdsAsHO.s 			page 7


 226              		.global	HAL_I2C_MspInit
 227              		.syntax unified
 228              		.thumb
 229              		.thumb_func
 231              	HAL_I2C_MspInit:
 232              	.LVL12:
 233              	.LFB230:
 116:Core/Src/i2c.c **** 
 117:Core/Src/i2c.c **** void HAL_I2C_MspInit(I2C_HandleTypeDef* i2cHandle)
 118:Core/Src/i2c.c **** {
 234              		.loc 1 118 1 is_stmt 1 view -0
 235              		.cfi_startproc
 236              		@ args = 0, pretend = 0, frame = 176
 237              		@ frame_needed = 0, uses_anonymous_args = 0
 238              		.loc 1 118 1 is_stmt 0 view .LVU67
 239 0000 10B5     		push	{r4, lr}
 240              	.LCFI2:
 241              		.cfi_def_cfa_offset 8
 242              		.cfi_offset 4, -8
 243              		.cfi_offset 14, -4
 244 0002 ACB0     		sub	sp, sp, #176
 245              	.LCFI3:
 246              		.cfi_def_cfa_offset 184
 247 0004 0446     		mov	r4, r0
 119:Core/Src/i2c.c **** 
 120:Core/Src/i2c.c ****   GPIO_InitTypeDef GPIO_InitStruct = {0};
 248              		.loc 1 120 3 is_stmt 1 view .LVU68
 249              		.loc 1 120 20 is_stmt 0 view .LVU69
 250 0006 0021     		movs	r1, #0
 251 0008 2791     		str	r1, [sp, #156]
 252 000a 2891     		str	r1, [sp, #160]
 253 000c 2991     		str	r1, [sp, #164]
 254 000e 2A91     		str	r1, [sp, #168]
 255 0010 2B91     		str	r1, [sp, #172]
 121:Core/Src/i2c.c ****   RCC_PeriphCLKInitTypeDef PeriphClkInit = {0};
 256              		.loc 1 121 3 is_stmt 1 view .LVU70
 257              		.loc 1 121 28 is_stmt 0 view .LVU71
 258 0012 8822     		movs	r2, #136
 259 0014 05A8     		add	r0, sp, #20
 260              	.LVL13:
 261              		.loc 1 121 28 view .LVU72
 262 0016 FFF7FEFF 		bl	memset
 263              	.LVL14:
 122:Core/Src/i2c.c ****   if(i2cHandle->Instance==I2C1)
 264              		.loc 1 122 3 is_stmt 1 view .LVU73
 265              		.loc 1 122 15 is_stmt 0 view .LVU74
 266 001a 2368     		ldr	r3, [r4]
 267              		.loc 1 122 5 view .LVU75
 268 001c 2F4A     		ldr	r2, .L31
 269 001e 9342     		cmp	r3, r2
 270 0020 04D0     		beq	.L27
 123:Core/Src/i2c.c ****   {
 124:Core/Src/i2c.c ****   /* USER CODE BEGIN I2C1_MspInit 0 */
 125:Core/Src/i2c.c **** 
 126:Core/Src/i2c.c ****   /* USER CODE END I2C1_MspInit 0 */
 127:Core/Src/i2c.c **** 
 128:Core/Src/i2c.c ****   /** Initializes the peripherals clock
ARM GAS  /var/folders/gv/t2w3mcd17yl2fynvjl120d0m0000gn/T//ccdsAsHO.s 			page 8


 129:Core/Src/i2c.c ****   */
 130:Core/Src/i2c.c ****     PeriphClkInit.PeriphClockSelection = RCC_PERIPHCLK_I2C1;
 131:Core/Src/i2c.c ****     PeriphClkInit.I2c1ClockSelection = RCC_I2C1CLKSOURCE_PCLK1;
 132:Core/Src/i2c.c ****     if (HAL_RCCEx_PeriphCLKConfig(&PeriphClkInit) != HAL_OK)
 133:Core/Src/i2c.c ****     {
 134:Core/Src/i2c.c ****       Error_Handler();
 135:Core/Src/i2c.c ****     }
 136:Core/Src/i2c.c **** 
 137:Core/Src/i2c.c ****     __HAL_RCC_GPIOB_CLK_ENABLE();
 138:Core/Src/i2c.c ****     /**I2C1 GPIO Configuration
 139:Core/Src/i2c.c ****     PB6     ------> I2C1_SCL
 140:Core/Src/i2c.c ****     PB9     ------> I2C1_SDA
 141:Core/Src/i2c.c ****     */
 142:Core/Src/i2c.c ****     GPIO_InitStruct.Pin = GPIO_PIN_6|GPIO_PIN_9;
 143:Core/Src/i2c.c ****     GPIO_InitStruct.Mode = GPIO_MODE_AF_OD;
 144:Core/Src/i2c.c ****     GPIO_InitStruct.Pull = GPIO_NOPULL;
 145:Core/Src/i2c.c ****     GPIO_InitStruct.Speed = GPIO_SPEED_FREQ_VERY_HIGH;
 146:Core/Src/i2c.c ****     GPIO_InitStruct.Alternate = GPIO_AF4_I2C1;
 147:Core/Src/i2c.c ****     HAL_GPIO_Init(GPIOB, &GPIO_InitStruct);
 148:Core/Src/i2c.c **** 
 149:Core/Src/i2c.c ****     /* I2C1 clock enable */
 150:Core/Src/i2c.c ****     __HAL_RCC_I2C1_CLK_ENABLE();
 151:Core/Src/i2c.c ****   /* USER CODE BEGIN I2C1_MspInit 1 */
 152:Core/Src/i2c.c **** 
 153:Core/Src/i2c.c ****   /* USER CODE END I2C1_MspInit 1 */
 154:Core/Src/i2c.c ****   }
 155:Core/Src/i2c.c ****   else if(i2cHandle->Instance==I2C2)
 271              		.loc 1 155 8 is_stmt 1 view .LVU76
 272              		.loc 1 155 10 is_stmt 0 view .LVU77
 273 0022 2F4A     		ldr	r2, .L31+4
 274 0024 9342     		cmp	r3, r2
 275 0026 2DD0     		beq	.L28
 276              	.LVL15:
 277              	.L21:
 156:Core/Src/i2c.c ****   {
 157:Core/Src/i2c.c ****   /* USER CODE BEGIN I2C2_MspInit 0 */
 158:Core/Src/i2c.c **** 
 159:Core/Src/i2c.c ****   /* USER CODE END I2C2_MspInit 0 */
 160:Core/Src/i2c.c **** 
 161:Core/Src/i2c.c ****   /** Initializes the peripherals clock
 162:Core/Src/i2c.c ****   */
 163:Core/Src/i2c.c ****     PeriphClkInit.PeriphClockSelection = RCC_PERIPHCLK_I2C2;
 164:Core/Src/i2c.c ****     PeriphClkInit.I2c2ClockSelection = RCC_I2C2CLKSOURCE_PCLK1;
 165:Core/Src/i2c.c ****     if (HAL_RCCEx_PeriphCLKConfig(&PeriphClkInit) != HAL_OK)
 166:Core/Src/i2c.c ****     {
 167:Core/Src/i2c.c ****       Error_Handler();
 168:Core/Src/i2c.c ****     }
 169:Core/Src/i2c.c **** 
 170:Core/Src/i2c.c ****     __HAL_RCC_GPIOB_CLK_ENABLE();
 171:Core/Src/i2c.c ****     /**I2C2 GPIO Configuration
 172:Core/Src/i2c.c ****     PB10     ------> I2C2_SCL
 173:Core/Src/i2c.c ****     PB11     ------> I2C2_SDA
 174:Core/Src/i2c.c ****     */
 175:Core/Src/i2c.c ****     GPIO_InitStruct.Pin = GPIO_PIN_10|GPIO_PIN_11;
 176:Core/Src/i2c.c ****     GPIO_InitStruct.Mode = GPIO_MODE_AF_OD;
 177:Core/Src/i2c.c ****     GPIO_InitStruct.Pull = GPIO_NOPULL;
 178:Core/Src/i2c.c ****     GPIO_InitStruct.Speed = GPIO_SPEED_FREQ_VERY_HIGH;
ARM GAS  /var/folders/gv/t2w3mcd17yl2fynvjl120d0m0000gn/T//ccdsAsHO.s 			page 9


 179:Core/Src/i2c.c ****     GPIO_InitStruct.Alternate = GPIO_AF4_I2C2;
 180:Core/Src/i2c.c ****     HAL_GPIO_Init(GPIOB, &GPIO_InitStruct);
 181:Core/Src/i2c.c **** 
 182:Core/Src/i2c.c ****     /* I2C2 clock enable */
 183:Core/Src/i2c.c ****     __HAL_RCC_I2C2_CLK_ENABLE();
 184:Core/Src/i2c.c ****   /* USER CODE BEGIN I2C2_MspInit 1 */
 185:Core/Src/i2c.c **** 
 186:Core/Src/i2c.c ****   /* USER CODE END I2C2_MspInit 1 */
 187:Core/Src/i2c.c ****   }
 188:Core/Src/i2c.c **** }
 278              		.loc 1 188 1 view .LVU78
 279 0028 2CB0     		add	sp, sp, #176
 280              	.LCFI4:
 281              		.cfi_remember_state
 282              		.cfi_def_cfa_offset 8
 283              		@ sp needed
 284 002a 10BD     		pop	{r4, pc}
 285              	.LVL16:
 286              	.L27:
 287              	.LCFI5:
 288              		.cfi_restore_state
 130:Core/Src/i2c.c ****     PeriphClkInit.I2c1ClockSelection = RCC_I2C1CLKSOURCE_PCLK1;
 289              		.loc 1 130 5 is_stmt 1 view .LVU79
 130:Core/Src/i2c.c ****     PeriphClkInit.I2c1ClockSelection = RCC_I2C1CLKSOURCE_PCLK1;
 290              		.loc 1 130 40 is_stmt 0 view .LVU80
 291 002c 4023     		movs	r3, #64
 292 002e 0593     		str	r3, [sp, #20]
 131:Core/Src/i2c.c ****     if (HAL_RCCEx_PeriphCLKConfig(&PeriphClkInit) != HAL_OK)
 293              		.loc 1 131 5 is_stmt 1 view .LVU81
 132:Core/Src/i2c.c ****     {
 294              		.loc 1 132 5 view .LVU82
 132:Core/Src/i2c.c ****     {
 295              		.loc 1 132 9 is_stmt 0 view .LVU83
 296 0030 05A8     		add	r0, sp, #20
 297 0032 FFF7FEFF 		bl	HAL_RCCEx_PeriphCLKConfig
 298              	.LVL17:
 132:Core/Src/i2c.c ****     {
 299              		.loc 1 132 8 discriminator 1 view .LVU84
 300 0036 10BB     		cbnz	r0, .L29
 301              	.L23:
 137:Core/Src/i2c.c ****     /**I2C1 GPIO Configuration
 302              		.loc 1 137 5 is_stmt 1 view .LVU85
 303              	.LBB2:
 137:Core/Src/i2c.c ****     /**I2C1 GPIO Configuration
 304              		.loc 1 137 5 view .LVU86
 137:Core/Src/i2c.c ****     /**I2C1 GPIO Configuration
 305              		.loc 1 137 5 view .LVU87
 306 0038 2A4C     		ldr	r4, .L31+8
 307              	.LVL18:
 137:Core/Src/i2c.c ****     /**I2C1 GPIO Configuration
 308              		.loc 1 137 5 is_stmt 0 view .LVU88
 309 003a E36C     		ldr	r3, [r4, #76]
 310 003c 43F00203 		orr	r3, r3, #2
 311 0040 E364     		str	r3, [r4, #76]
 137:Core/Src/i2c.c ****     /**I2C1 GPIO Configuration
 312              		.loc 1 137 5 is_stmt 1 view .LVU89
 313 0042 E36C     		ldr	r3, [r4, #76]
ARM GAS  /var/folders/gv/t2w3mcd17yl2fynvjl120d0m0000gn/T//ccdsAsHO.s 			page 10


 314 0044 03F00203 		and	r3, r3, #2
 315 0048 0193     		str	r3, [sp, #4]
 137:Core/Src/i2c.c ****     /**I2C1 GPIO Configuration
 316              		.loc 1 137 5 view .LVU90
 317 004a 019B     		ldr	r3, [sp, #4]
 318              	.LBE2:
 137:Core/Src/i2c.c ****     /**I2C1 GPIO Configuration
 319              		.loc 1 137 5 view .LVU91
 142:Core/Src/i2c.c ****     GPIO_InitStruct.Mode = GPIO_MODE_AF_OD;
 320              		.loc 1 142 5 view .LVU92
 142:Core/Src/i2c.c ****     GPIO_InitStruct.Mode = GPIO_MODE_AF_OD;
 321              		.loc 1 142 25 is_stmt 0 view .LVU93
 322 004c 4FF41073 		mov	r3, #576
 323 0050 2793     		str	r3, [sp, #156]
 143:Core/Src/i2c.c ****     GPIO_InitStruct.Pull = GPIO_NOPULL;
 324              		.loc 1 143 5 is_stmt 1 view .LVU94
 143:Core/Src/i2c.c ****     GPIO_InitStruct.Pull = GPIO_NOPULL;
 325              		.loc 1 143 26 is_stmt 0 view .LVU95
 326 0052 1223     		movs	r3, #18
 327 0054 2893     		str	r3, [sp, #160]
 144:Core/Src/i2c.c ****     GPIO_InitStruct.Speed = GPIO_SPEED_FREQ_VERY_HIGH;
 328              		.loc 1 144 5 is_stmt 1 view .LVU96
 144:Core/Src/i2c.c ****     GPIO_InitStruct.Speed = GPIO_SPEED_FREQ_VERY_HIGH;
 329              		.loc 1 144 26 is_stmt 0 view .LVU97
 330 0056 0023     		movs	r3, #0
 331 0058 2993     		str	r3, [sp, #164]
 145:Core/Src/i2c.c ****     GPIO_InitStruct.Alternate = GPIO_AF4_I2C1;
 332              		.loc 1 145 5 is_stmt 1 view .LVU98
 145:Core/Src/i2c.c ****     GPIO_InitStruct.Alternate = GPIO_AF4_I2C1;
 333              		.loc 1 145 27 is_stmt 0 view .LVU99
 334 005a 0323     		movs	r3, #3
 335 005c 2A93     		str	r3, [sp, #168]
 146:Core/Src/i2c.c ****     HAL_GPIO_Init(GPIOB, &GPIO_InitStruct);
 336              		.loc 1 146 5 is_stmt 1 view .LVU100
 146:Core/Src/i2c.c ****     HAL_GPIO_Init(GPIOB, &GPIO_InitStruct);
 337              		.loc 1 146 31 is_stmt 0 view .LVU101
 338 005e 0423     		movs	r3, #4
 339 0060 2B93     		str	r3, [sp, #172]
 147:Core/Src/i2c.c **** 
 340              		.loc 1 147 5 is_stmt 1 view .LVU102
 341 0062 27A9     		add	r1, sp, #156
 342 0064 2048     		ldr	r0, .L31+12
 343 0066 FFF7FEFF 		bl	HAL_GPIO_Init
 344              	.LVL19:
 150:Core/Src/i2c.c ****   /* USER CODE BEGIN I2C1_MspInit 1 */
 345              		.loc 1 150 5 view .LVU103
 346              	.LBB3:
 150:Core/Src/i2c.c ****   /* USER CODE BEGIN I2C1_MspInit 1 */
 347              		.loc 1 150 5 view .LVU104
 150:Core/Src/i2c.c ****   /* USER CODE BEGIN I2C1_MspInit 1 */
 348              		.loc 1 150 5 view .LVU105
 349 006a A36D     		ldr	r3, [r4, #88]
 350 006c 43F40013 		orr	r3, r3, #2097152
 351 0070 A365     		str	r3, [r4, #88]
 150:Core/Src/i2c.c ****   /* USER CODE BEGIN I2C1_MspInit 1 */
 352              		.loc 1 150 5 view .LVU106
 353 0072 A36D     		ldr	r3, [r4, #88]
ARM GAS  /var/folders/gv/t2w3mcd17yl2fynvjl120d0m0000gn/T//ccdsAsHO.s 			page 11


 354 0074 03F40013 		and	r3, r3, #2097152
 355 0078 0293     		str	r3, [sp, #8]
 150:Core/Src/i2c.c ****   /* USER CODE BEGIN I2C1_MspInit 1 */
 356              		.loc 1 150 5 view .LVU107
 357 007a 029B     		ldr	r3, [sp, #8]
 358              	.LBE3:
 150:Core/Src/i2c.c ****   /* USER CODE BEGIN I2C1_MspInit 1 */
 359              		.loc 1 150 5 view .LVU108
 360 007c D4E7     		b	.L21
 361              	.LVL20:
 362              	.L29:
 134:Core/Src/i2c.c ****     }
 363              		.loc 1 134 7 view .LVU109
 364 007e FFF7FEFF 		bl	Error_Handler
 365              	.LVL21:
 366 0082 D9E7     		b	.L23
 367              	.L28:
 163:Core/Src/i2c.c ****     PeriphClkInit.I2c2ClockSelection = RCC_I2C2CLKSOURCE_PCLK1;
 368              		.loc 1 163 5 view .LVU110
 163:Core/Src/i2c.c ****     PeriphClkInit.I2c2ClockSelection = RCC_I2C2CLKSOURCE_PCLK1;
 369              		.loc 1 163 40 is_stmt 0 view .LVU111
 370 0084 8023     		movs	r3, #128
 371 0086 0593     		str	r3, [sp, #20]
 164:Core/Src/i2c.c ****     if (HAL_RCCEx_PeriphCLKConfig(&PeriphClkInit) != HAL_OK)
 372              		.loc 1 164 5 is_stmt 1 view .LVU112
 165:Core/Src/i2c.c ****     {
 373              		.loc 1 165 5 view .LVU113
 165:Core/Src/i2c.c ****     {
 374              		.loc 1 165 9 is_stmt 0 view .LVU114
 375 0088 05A8     		add	r0, sp, #20
 376 008a FFF7FEFF 		bl	HAL_RCCEx_PeriphCLKConfig
 377              	.LVL22:
 165:Core/Src/i2c.c ****     {
 378              		.loc 1 165 8 discriminator 1 view .LVU115
 379 008e 10BB     		cbnz	r0, .L30
 380              	.L25:
 170:Core/Src/i2c.c ****     /**I2C2 GPIO Configuration
 381              		.loc 1 170 5 is_stmt 1 view .LVU116
 382              	.LBB4:
 170:Core/Src/i2c.c ****     /**I2C2 GPIO Configuration
 383              		.loc 1 170 5 view .LVU117
 170:Core/Src/i2c.c ****     /**I2C2 GPIO Configuration
 384              		.loc 1 170 5 view .LVU118
 385 0090 144C     		ldr	r4, .L31+8
 386              	.LVL23:
 170:Core/Src/i2c.c ****     /**I2C2 GPIO Configuration
 387              		.loc 1 170 5 is_stmt 0 view .LVU119
 388 0092 E36C     		ldr	r3, [r4, #76]
 389 0094 43F00203 		orr	r3, r3, #2
 390 0098 E364     		str	r3, [r4, #76]
 170:Core/Src/i2c.c ****     /**I2C2 GPIO Configuration
 391              		.loc 1 170 5 is_stmt 1 view .LVU120
 392 009a E36C     		ldr	r3, [r4, #76]
 393 009c 03F00203 		and	r3, r3, #2
 394 00a0 0393     		str	r3, [sp, #12]
 170:Core/Src/i2c.c ****     /**I2C2 GPIO Configuration
 395              		.loc 1 170 5 view .LVU121
ARM GAS  /var/folders/gv/t2w3mcd17yl2fynvjl120d0m0000gn/T//ccdsAsHO.s 			page 12


 396 00a2 039B     		ldr	r3, [sp, #12]
 397              	.LBE4:
 170:Core/Src/i2c.c ****     /**I2C2 GPIO Configuration
 398              		.loc 1 170 5 view .LVU122
 175:Core/Src/i2c.c ****     GPIO_InitStruct.Mode = GPIO_MODE_AF_OD;
 399              		.loc 1 175 5 view .LVU123
 175:Core/Src/i2c.c ****     GPIO_InitStruct.Mode = GPIO_MODE_AF_OD;
 400              		.loc 1 175 25 is_stmt 0 view .LVU124
 401 00a4 4FF44063 		mov	r3, #3072
 402 00a8 2793     		str	r3, [sp, #156]
 176:Core/Src/i2c.c ****     GPIO_InitStruct.Pull = GPIO_NOPULL;
 403              		.loc 1 176 5 is_stmt 1 view .LVU125
 176:Core/Src/i2c.c ****     GPIO_InitStruct.Pull = GPIO_NOPULL;
 404              		.loc 1 176 26 is_stmt 0 view .LVU126
 405 00aa 1223     		movs	r3, #18
 406 00ac 2893     		str	r3, [sp, #160]
 177:Core/Src/i2c.c ****     GPIO_InitStruct.Speed = GPIO_SPEED_FREQ_VERY_HIGH;
 407              		.loc 1 177 5 is_stmt 1 view .LVU127
 177:Core/Src/i2c.c ****     GPIO_InitStruct.Speed = GPIO_SPEED_FREQ_VERY_HIGH;
 408              		.loc 1 177 26 is_stmt 0 view .LVU128
 409 00ae 0023     		movs	r3, #0
 410 00b0 2993     		str	r3, [sp, #164]
 178:Core/Src/i2c.c ****     GPIO_InitStruct.Alternate = GPIO_AF4_I2C2;
 411              		.loc 1 178 5 is_stmt 1 view .LVU129
 178:Core/Src/i2c.c ****     GPIO_InitStruct.Alternate = GPIO_AF4_I2C2;
 412              		.loc 1 178 27 is_stmt 0 view .LVU130
 413 00b2 0323     		movs	r3, #3
 414 00b4 2A93     		str	r3, [sp, #168]
 179:Core/Src/i2c.c ****     HAL_GPIO_Init(GPIOB, &GPIO_InitStruct);
 415              		.loc 1 179 5 is_stmt 1 view .LVU131
 179:Core/Src/i2c.c ****     HAL_GPIO_Init(GPIOB, &GPIO_InitStruct);
 416              		.loc 1 179 31 is_stmt 0 view .LVU132
 417 00b6 0423     		movs	r3, #4
 418 00b8 2B93     		str	r3, [sp, #172]
 180:Core/Src/i2c.c **** 
 419              		.loc 1 180 5 is_stmt 1 view .LVU133
 420 00ba 27A9     		add	r1, sp, #156
 421 00bc 0A48     		ldr	r0, .L31+12
 422 00be FFF7FEFF 		bl	HAL_GPIO_Init
 423              	.LVL24:
 183:Core/Src/i2c.c ****   /* USER CODE BEGIN I2C2_MspInit 1 */
 424              		.loc 1 183 5 view .LVU134
 425              	.LBB5:
 183:Core/Src/i2c.c ****   /* USER CODE BEGIN I2C2_MspInit 1 */
 426              		.loc 1 183 5 view .LVU135
 183:Core/Src/i2c.c ****   /* USER CODE BEGIN I2C2_MspInit 1 */
 427              		.loc 1 183 5 view .LVU136
 428 00c2 A36D     		ldr	r3, [r4, #88]
 429 00c4 43F48003 		orr	r3, r3, #4194304
 430 00c8 A365     		str	r3, [r4, #88]
 183:Core/Src/i2c.c ****   /* USER CODE BEGIN I2C2_MspInit 1 */
 431              		.loc 1 183 5 view .LVU137
 432 00ca A36D     		ldr	r3, [r4, #88]
 433 00cc 03F48003 		and	r3, r3, #4194304
 434 00d0 0493     		str	r3, [sp, #16]
 183:Core/Src/i2c.c ****   /* USER CODE BEGIN I2C2_MspInit 1 */
 435              		.loc 1 183 5 view .LVU138
ARM GAS  /var/folders/gv/t2w3mcd17yl2fynvjl120d0m0000gn/T//ccdsAsHO.s 			page 13


 436 00d2 049B     		ldr	r3, [sp, #16]
 437              	.LBE5:
 183:Core/Src/i2c.c ****   /* USER CODE BEGIN I2C2_MspInit 1 */
 438              		.loc 1 183 5 view .LVU139
 439              		.loc 1 188 1 is_stmt 0 view .LVU140
 440 00d4 A8E7     		b	.L21
 441              	.LVL25:
 442              	.L30:
 167:Core/Src/i2c.c ****     }
 443              		.loc 1 167 7 is_stmt 1 view .LVU141
 444 00d6 FFF7FEFF 		bl	Error_Handler
 445              	.LVL26:
 446 00da D9E7     		b	.L25
 447              	.L32:
 448              		.align	2
 449              	.L31:
 450 00dc 00540040 		.word	1073763328
 451 00e0 00580040 		.word	1073764352
 452 00e4 00100240 		.word	1073876992
 453 00e8 00040048 		.word	1207960576
 454              		.cfi_endproc
 455              	.LFE230:
 457              		.section	.text.HAL_I2C_MspDeInit,"ax",%progbits
 458              		.align	1
 459              		.global	HAL_I2C_MspDeInit
 460              		.syntax unified
 461              		.thumb
 462              		.thumb_func
 464              	HAL_I2C_MspDeInit:
 465              	.LVL27:
 466              	.LFB231:
 189:Core/Src/i2c.c **** 
 190:Core/Src/i2c.c **** void HAL_I2C_MspDeInit(I2C_HandleTypeDef* i2cHandle)
 191:Core/Src/i2c.c **** {
 467              		.loc 1 191 1 view -0
 468              		.cfi_startproc
 469              		@ args = 0, pretend = 0, frame = 0
 470              		@ frame_needed = 0, uses_anonymous_args = 0
 471              		.loc 1 191 1 is_stmt 0 view .LVU143
 472 0000 08B5     		push	{r3, lr}
 473              	.LCFI6:
 474              		.cfi_def_cfa_offset 8
 475              		.cfi_offset 3, -8
 476              		.cfi_offset 14, -4
 192:Core/Src/i2c.c **** 
 193:Core/Src/i2c.c ****   if(i2cHandle->Instance==I2C1)
 477              		.loc 1 193 3 is_stmt 1 view .LVU144
 478              		.loc 1 193 15 is_stmt 0 view .LVU145
 479 0002 0368     		ldr	r3, [r0]
 480              		.loc 1 193 5 view .LVU146
 481 0004 134A     		ldr	r2, .L39
 482 0006 9342     		cmp	r3, r2
 483 0008 03D0     		beq	.L37
 194:Core/Src/i2c.c ****   {
 195:Core/Src/i2c.c ****   /* USER CODE BEGIN I2C1_MspDeInit 0 */
 196:Core/Src/i2c.c **** 
 197:Core/Src/i2c.c ****   /* USER CODE END I2C1_MspDeInit 0 */
ARM GAS  /var/folders/gv/t2w3mcd17yl2fynvjl120d0m0000gn/T//ccdsAsHO.s 			page 14


 198:Core/Src/i2c.c ****     /* Peripheral clock disable */
 199:Core/Src/i2c.c ****     __HAL_RCC_I2C1_CLK_DISABLE();
 200:Core/Src/i2c.c **** 
 201:Core/Src/i2c.c ****     /**I2C1 GPIO Configuration
 202:Core/Src/i2c.c ****     PB6     ------> I2C1_SCL
 203:Core/Src/i2c.c ****     PB9     ------> I2C1_SDA
 204:Core/Src/i2c.c ****     */
 205:Core/Src/i2c.c ****     HAL_GPIO_DeInit(GPIOB, GPIO_PIN_6);
 206:Core/Src/i2c.c **** 
 207:Core/Src/i2c.c ****     HAL_GPIO_DeInit(GPIOB, GPIO_PIN_9);
 208:Core/Src/i2c.c **** 
 209:Core/Src/i2c.c ****   /* USER CODE BEGIN I2C1_MspDeInit 1 */
 210:Core/Src/i2c.c **** 
 211:Core/Src/i2c.c ****   /* USER CODE END I2C1_MspDeInit 1 */
 212:Core/Src/i2c.c ****   }
 213:Core/Src/i2c.c ****   else if(i2cHandle->Instance==I2C2)
 484              		.loc 1 213 8 is_stmt 1 view .LVU147
 485              		.loc 1 213 10 is_stmt 0 view .LVU148
 486 000a 134A     		ldr	r2, .L39+4
 487 000c 9342     		cmp	r3, r2
 488 000e 10D0     		beq	.L38
 489              	.LVL28:
 490              	.L33:
 214:Core/Src/i2c.c ****   {
 215:Core/Src/i2c.c ****   /* USER CODE BEGIN I2C2_MspDeInit 0 */
 216:Core/Src/i2c.c **** 
 217:Core/Src/i2c.c ****   /* USER CODE END I2C2_MspDeInit 0 */
 218:Core/Src/i2c.c ****     /* Peripheral clock disable */
 219:Core/Src/i2c.c ****     __HAL_RCC_I2C2_CLK_DISABLE();
 220:Core/Src/i2c.c **** 
 221:Core/Src/i2c.c ****     /**I2C2 GPIO Configuration
 222:Core/Src/i2c.c ****     PB10     ------> I2C2_SCL
 223:Core/Src/i2c.c ****     PB11     ------> I2C2_SDA
 224:Core/Src/i2c.c ****     */
 225:Core/Src/i2c.c ****     HAL_GPIO_DeInit(GPIOB, GPIO_PIN_10);
 226:Core/Src/i2c.c **** 
 227:Core/Src/i2c.c ****     HAL_GPIO_DeInit(GPIOB, GPIO_PIN_11);
 228:Core/Src/i2c.c **** 
 229:Core/Src/i2c.c ****   /* USER CODE BEGIN I2C2_MspDeInit 1 */
 230:Core/Src/i2c.c **** 
 231:Core/Src/i2c.c ****   /* USER CODE END I2C2_MspDeInit 1 */
 232:Core/Src/i2c.c ****   }
 233:Core/Src/i2c.c **** }
 491              		.loc 1 233 1 view .LVU149
 492 0010 08BD     		pop	{r3, pc}
 493              	.LVL29:
 494              	.L37:
 199:Core/Src/i2c.c **** 
 495              		.loc 1 199 5 is_stmt 1 view .LVU150
 496 0012 02F5DE32 		add	r2, r2, #113664
 497 0016 936D     		ldr	r3, [r2, #88]
 498 0018 23F40013 		bic	r3, r3, #2097152
 499 001c 9365     		str	r3, [r2, #88]
 205:Core/Src/i2c.c **** 
 500              		.loc 1 205 5 view .LVU151
 501 001e 4021     		movs	r1, #64
 502 0020 0E48     		ldr	r0, .L39+8
ARM GAS  /var/folders/gv/t2w3mcd17yl2fynvjl120d0m0000gn/T//ccdsAsHO.s 			page 15


 503              	.LVL30:
 205:Core/Src/i2c.c **** 
 504              		.loc 1 205 5 is_stmt 0 view .LVU152
 505 0022 FFF7FEFF 		bl	HAL_GPIO_DeInit
 506              	.LVL31:
 207:Core/Src/i2c.c **** 
 507              		.loc 1 207 5 is_stmt 1 view .LVU153
 508 0026 4FF40071 		mov	r1, #512
 509 002a 0C48     		ldr	r0, .L39+8
 510 002c FFF7FEFF 		bl	HAL_GPIO_DeInit
 511              	.LVL32:
 512 0030 EEE7     		b	.L33
 513              	.LVL33:
 514              	.L38:
 219:Core/Src/i2c.c **** 
 515              		.loc 1 219 5 view .LVU154
 516 0032 02F5DC32 		add	r2, r2, #112640
 517 0036 936D     		ldr	r3, [r2, #88]
 518 0038 23F48003 		bic	r3, r3, #4194304
 519 003c 9365     		str	r3, [r2, #88]
 225:Core/Src/i2c.c **** 
 520              		.loc 1 225 5 view .LVU155
 521 003e 4FF48061 		mov	r1, #1024
 522 0042 0648     		ldr	r0, .L39+8
 523              	.LVL34:
 225:Core/Src/i2c.c **** 
 524              		.loc 1 225 5 is_stmt 0 view .LVU156
 525 0044 FFF7FEFF 		bl	HAL_GPIO_DeInit
 526              	.LVL35:
 227:Core/Src/i2c.c **** 
 527              		.loc 1 227 5 is_stmt 1 view .LVU157
 528 0048 4FF40061 		mov	r1, #2048
 529 004c 0348     		ldr	r0, .L39+8
 530 004e FFF7FEFF 		bl	HAL_GPIO_DeInit
 531              	.LVL36:
 532              		.loc 1 233 1 is_stmt 0 view .LVU158
 533 0052 DDE7     		b	.L33
 534              	.L40:
 535              		.align	2
 536              	.L39:
 537 0054 00540040 		.word	1073763328
 538 0058 00580040 		.word	1073764352
 539 005c 00040048 		.word	1207960576
 540              		.cfi_endproc
 541              	.LFE231:
 543              		.section	.rodata.Read_I2C_Reg.str1.4,"aMS",%progbits,1
 544              		.align	2
 545              	.LC0:
 546 0000 4552523A 		.ascii	"ERR: Failed to receive data from I2C module at addr"
 546      20466169 
 546      6C656420 
 546      746F2072 
 546      65636569 
 547 0033 65737320 		.ascii	"ess 0x%02x - err code %i\015\012\000"
 547      30782530 
 547      3278202D 
 547      20657272 
ARM GAS  /var/folders/gv/t2w3mcd17yl2fynvjl120d0m0000gn/T//ccdsAsHO.s 			page 16


 547      20636F64 
 548              		.section	.text.Read_I2C_Reg,"ax",%progbits
 549              		.align	1
 550              		.global	Read_I2C_Reg
 551              		.syntax unified
 552              		.thumb
 553              		.thumb_func
 555              	Read_I2C_Reg:
 556              	.LVL37:
 557              	.LFB232:
 234:Core/Src/i2c.c **** 
 235:Core/Src/i2c.c **** /* USER CODE BEGIN 1 */
 236:Core/Src/i2c.c **** extern void log_printf(const char* fmt, ...);
 237:Core/Src/i2c.c **** 
 238:Core/Src/i2c.c **** uint8_t Read_I2C_Reg(uint8_t addr, uint8_t reg, uint8_t dev) {
 558              		.loc 1 238 62 is_stmt 1 view -0
 559              		.cfi_startproc
 560              		@ args = 0, pretend = 0, frame = 16
 561              		@ frame_needed = 0, uses_anonymous_args = 0
 562              		.loc 1 238 62 is_stmt 0 view .LVU160
 563 0000 F0B5     		push	{r4, r5, r6, r7, lr}
 564              	.LCFI7:
 565              		.cfi_def_cfa_offset 20
 566              		.cfi_offset 4, -20
 567              		.cfi_offset 5, -16
 568              		.cfi_offset 6, -12
 569              		.cfi_offset 7, -8
 570              		.cfi_offset 14, -4
 571 0002 87B0     		sub	sp, sp, #28
 572              	.LCFI8:
 573              		.cfi_def_cfa_offset 48
 574 0004 0746     		mov	r7, r0
 575 0006 8DF80F10 		strb	r1, [sp, #15]
 239:Core/Src/i2c.c **** 	I2C_HandleTypeDef* i2cdev;
 576              		.loc 1 239 2 is_stmt 1 view .LVU161
 240:Core/Src/i2c.c **** 	if (dev == 1) {
 577              		.loc 1 240 2 view .LVU162
 578              		.loc 1 240 5 is_stmt 0 view .LVU163
 579 000a 012A     		cmp	r2, #1
 580 000c 1DD0     		beq	.L45
 241:Core/Src/i2c.c **** 		i2cdev = &hi2c1;
 242:Core/Src/i2c.c **** 	} else if (dev == 2) {
 581              		.loc 1 242 9 is_stmt 1 view .LVU164
 582              		.loc 1 242 12 is_stmt 0 view .LVU165
 583 000e 022A     		cmp	r2, #2
 584 0010 26D1     		bne	.L46
 243:Core/Src/i2c.c **** 		i2cdev = &hi2c2;
 585              		.loc 1 243 10 view .LVU166
 586 0012 144B     		ldr	r3, .L49
 587 0014 1D46     		mov	r5, r3
 588              	.L42:
 589              	.LVL38:
 244:Core/Src/i2c.c **** 	} else {
 245:Core/Src/i2c.c **** 		return HAL_ERROR; // wrong device
 246:Core/Src/i2c.c **** 	}
 247:Core/Src/i2c.c **** 	uint8_t out;
 590              		.loc 1 247 2 is_stmt 1 view .LVU167
ARM GAS  /var/folders/gv/t2w3mcd17yl2fynvjl120d0m0000gn/T//ccdsAsHO.s 			page 17


 248:Core/Src/i2c.c **** 	uint8_t res = HAL_I2C_Master_Transmit(i2cdev,addr << 1,&reg,1,10000);
 591              		.loc 1 248 2 view .LVU168
 592              		.loc 1 248 16 is_stmt 0 view .LVU169
 593 0016 4FEA470C 		lsl	ip, r7, #1
 594 001a 42F21074 		movw	r4, #10000
 595 001e 0094     		str	r4, [sp]
 596 0020 0123     		movs	r3, #1
 597 0022 0DF10F02 		add	r2, sp, #15
 598              	.LVL39:
 599              		.loc 1 248 16 view .LVU170
 600 0026 6646     		mov	r6, ip
 601 0028 6146     		mov	r1, ip
 602              	.LVL40:
 603              		.loc 1 248 16 view .LVU171
 604 002a 2846     		mov	r0, r5
 605              	.LVL41:
 606              		.loc 1 248 16 view .LVU172
 607 002c FFF7FEFF 		bl	HAL_I2C_Master_Transmit
 608              	.LVL42:
 249:Core/Src/i2c.c **** 	res = HAL_I2C_Master_Receive(i2cdev,addr << 1,&out,1,10000);
 609              		.loc 1 249 2 is_stmt 1 view .LVU173
 610              		.loc 1 249 8 is_stmt 0 view .LVU174
 611 0030 0094     		str	r4, [sp]
 612 0032 0123     		movs	r3, #1
 613 0034 0DF11702 		add	r2, sp, #23
 614 0038 3146     		mov	r1, r6
 615 003a 2846     		mov	r0, r5
 616 003c FFF7FEFF 		bl	HAL_I2C_Master_Receive
 617              	.LVL43:
 250:Core/Src/i2c.c **** 	if (res != HAL_OK) {
 618              		.loc 1 250 2 is_stmt 1 view .LVU175
 619              		.loc 1 250 5 is_stmt 0 view .LVU176
 620 0040 30B9     		cbnz	r0, .L48
 621              	.LVL44:
 622              	.L44:
 251:Core/Src/i2c.c **** 		log_printf("ERR: Failed to receive data from I2C module at address 0x%02x - err code %i\r\n",addr
 252:Core/Src/i2c.c **** 		Error_Handler();
 253:Core/Src/i2c.c **** 	}
 254:Core/Src/i2c.c **** 	return out;
 623              		.loc 1 254 2 is_stmt 1 view .LVU177
 624              		.loc 1 254 9 is_stmt 0 view .LVU178
 625 0042 9DF81700 		ldrb	r0, [sp, #23]	@ zero_extendqisi2
 626              	.LVL45:
 627              	.L43:
 255:Core/Src/i2c.c **** }
 628              		.loc 1 255 1 view .LVU179
 629 0046 07B0     		add	sp, sp, #28
 630              	.LCFI9:
 631              		.cfi_remember_state
 632              		.cfi_def_cfa_offset 20
 633              		@ sp needed
 634 0048 F0BD     		pop	{r4, r5, r6, r7, pc}
 635              	.LVL46:
 636              	.L45:
 637              	.LCFI10:
 638              		.cfi_restore_state
 241:Core/Src/i2c.c **** 	} else if (dev == 2) {
ARM GAS  /var/folders/gv/t2w3mcd17yl2fynvjl120d0m0000gn/T//ccdsAsHO.s 			page 18


 639              		.loc 1 241 10 view .LVU180
 640 004a 074B     		ldr	r3, .L49+4
 641 004c 1D46     		mov	r5, r3
 642 004e E2E7     		b	.L42
 643              	.LVL47:
 644              	.L48:
 251:Core/Src/i2c.c **** 		log_printf("ERR: Failed to receive data from I2C module at address 0x%02x - err code %i\r\n",addr
 645              		.loc 1 251 3 is_stmt 1 view .LVU181
 251:Core/Src/i2c.c **** 		log_printf("ERR: Failed to receive data from I2C module at address 0x%02x - err code %i\r\n",addr
 646              		.loc 1 251 111 is_stmt 0 view .LVU182
 647 0050 6A6C     		ldr	r2, [r5, #68]
 251:Core/Src/i2c.c **** 		log_printf("ERR: Failed to receive data from I2C module at address 0x%02x - err code %i\r\n",addr
 648              		.loc 1 251 3 view .LVU183
 649 0052 3946     		mov	r1, r7
 650 0054 0548     		ldr	r0, .L49+8
 651              	.LVL48:
 251:Core/Src/i2c.c **** 		log_printf("ERR: Failed to receive data from I2C module at address 0x%02x - err code %i\r\n",addr
 652              		.loc 1 251 3 view .LVU184
 653 0056 FFF7FEFF 		bl	log_printf
 654              	.LVL49:
 252:Core/Src/i2c.c **** 	}
 655              		.loc 1 252 3 is_stmt 1 view .LVU185
 656 005a FFF7FEFF 		bl	Error_Handler
 657              	.LVL50:
 658 005e F0E7     		b	.L44
 659              	.LVL51:
 660              	.L46:
 245:Core/Src/i2c.c **** 	}
 661              		.loc 1 245 10 is_stmt 0 view .LVU186
 662 0060 0120     		movs	r0, #1
 663              	.LVL52:
 245:Core/Src/i2c.c **** 	}
 664              		.loc 1 245 10 view .LVU187
 665 0062 F0E7     		b	.L43
 666              	.L50:
 667              		.align	2
 668              	.L49:
 669 0064 00000000 		.word	hi2c2
 670 0068 00000000 		.word	hi2c1
 671 006c 00000000 		.word	.LC0
 672              		.cfi_endproc
 673              	.LFE232:
 675              		.section	.rodata.Read_I2C_Reg_NoStop.str1.4,"aMS",%progbits,1
 676              		.align	2
 677              	.LC1:
 678 0000 4552523A 		.ascii	"ERR: Failed to read memory from I2C module at addre"
 678      20466169 
 678      6C656420 
 678      746F2072 
 678      65616420 
 679 0033 73732030 		.ascii	"ss 0x%02x - err code %i\015\012\000"
 679      78253032 
 679      78202D20 
 679      65727220 
 679      636F6465 
 680              		.section	.text.Read_I2C_Reg_NoStop,"ax",%progbits
 681              		.align	1
ARM GAS  /var/folders/gv/t2w3mcd17yl2fynvjl120d0m0000gn/T//ccdsAsHO.s 			page 19


 682              		.global	Read_I2C_Reg_NoStop
 683              		.syntax unified
 684              		.thumb
 685              		.thumb_func
 687              	Read_I2C_Reg_NoStop:
 688              	.LVL53:
 689              	.LFB233:
 256:Core/Src/i2c.c **** 
 257:Core/Src/i2c.c **** uint8_t Read_I2C_Reg_NoStop(uint8_t addr, uint8_t reg, uint8_t dev) {
 690              		.loc 1 257 69 is_stmt 1 view -0
 691              		.cfi_startproc
 692              		@ args = 0, pretend = 0, frame = 8
 693              		@ frame_needed = 0, uses_anonymous_args = 0
 694              		.loc 1 257 69 is_stmt 0 view .LVU189
 695 0000 30B5     		push	{r4, r5, lr}
 696              	.LCFI11:
 697              		.cfi_def_cfa_offset 12
 698              		.cfi_offset 4, -12
 699              		.cfi_offset 5, -8
 700              		.cfi_offset 14, -4
 701 0002 87B0     		sub	sp, sp, #28
 702              	.LCFI12:
 703              		.cfi_def_cfa_offset 40
 704 0004 0446     		mov	r4, r0
 258:Core/Src/i2c.c **** 	I2C_HandleTypeDef* i2cdev;
 705              		.loc 1 258 2 is_stmt 1 view .LVU190
 259:Core/Src/i2c.c **** 	if (dev == 1) {
 706              		.loc 1 259 2 view .LVU191
 707              		.loc 1 259 5 is_stmt 0 view .LVU192
 708 0006 012A     		cmp	r2, #1
 709 0008 16D0     		beq	.L55
 260:Core/Src/i2c.c **** 		i2cdev = &hi2c1;
 261:Core/Src/i2c.c **** 	} else if (dev == 2) {
 710              		.loc 1 261 9 is_stmt 1 view .LVU193
 711              		.loc 1 261 12 is_stmt 0 view .LVU194
 712 000a 022A     		cmp	r2, #2
 713 000c 1FD1     		bne	.L56
 262:Core/Src/i2c.c **** 		i2cdev = &hi2c2;
 714              		.loc 1 262 10 view .LVU195
 715 000e 114B     		ldr	r3, .L59
 716 0010 1D46     		mov	r5, r3
 717              	.L52:
 718              	.LVL54:
 263:Core/Src/i2c.c **** 	} else {
 264:Core/Src/i2c.c **** 		return HAL_ERROR; // wrong device
 265:Core/Src/i2c.c **** 	}
 266:Core/Src/i2c.c **** 	uint8_t out;
 719              		.loc 1 266 2 is_stmt 1 view .LVU196
 267:Core/Src/i2c.c **** 	uint8_t res = HAL_I2C_Mem_Read(i2cdev,addr << 1, reg, 1, &out, 1, 10000);
 720              		.loc 1 267 2 view .LVU197
 721              		.loc 1 267 16 is_stmt 0 view .LVU198
 722 0012 42F21073 		movw	r3, #10000
 723 0016 0293     		str	r3, [sp, #8]
 724 0018 0123     		movs	r3, #1
 725 001a 0193     		str	r3, [sp, #4]
 726 001c 0DF11702 		add	r2, sp, #23
 727              	.LVL55:
ARM GAS  /var/folders/gv/t2w3mcd17yl2fynvjl120d0m0000gn/T//ccdsAsHO.s 			page 20


 728              		.loc 1 267 16 view .LVU199
 729 0020 0092     		str	r2, [sp]
 730 0022 0A46     		mov	r2, r1
 731 0024 2146     		mov	r1, r4
 732              	.LVL56:
 733              		.loc 1 267 16 view .LVU200
 734 0026 9940     		lsls	r1, r1, r3
 735 0028 2846     		mov	r0, r5
 736              	.LVL57:
 737              		.loc 1 267 16 view .LVU201
 738 002a FFF7FEFF 		bl	HAL_I2C_Mem_Read
 739              	.LVL58:
 268:Core/Src/i2c.c **** 	if (res != HAL_OK) {
 740              		.loc 1 268 2 is_stmt 1 view .LVU202
 741              		.loc 1 268 5 is_stmt 0 view .LVU203
 742 002e 30B9     		cbnz	r0, .L58
 743              	.LVL59:
 744              	.L54:
 269:Core/Src/i2c.c **** 		log_printf("ERR: Failed to read memory from I2C module at address 0x%02x - err code %i\r\n",addr,
 270:Core/Src/i2c.c **** 		Error_Handler();
 271:Core/Src/i2c.c **** 	}
 272:Core/Src/i2c.c **** 	return out;
 745              		.loc 1 272 2 is_stmt 1 view .LVU204
 746              		.loc 1 272 9 is_stmt 0 view .LVU205
 747 0030 9DF81700 		ldrb	r0, [sp, #23]	@ zero_extendqisi2
 748              	.LVL60:
 749              	.L53:
 273:Core/Src/i2c.c **** }
 750              		.loc 1 273 1 view .LVU206
 751 0034 07B0     		add	sp, sp, #28
 752              	.LCFI13:
 753              		.cfi_remember_state
 754              		.cfi_def_cfa_offset 12
 755              		@ sp needed
 756 0036 30BD     		pop	{r4, r5, pc}
 757              	.LVL61:
 758              	.L55:
 759              	.LCFI14:
 760              		.cfi_restore_state
 260:Core/Src/i2c.c **** 	} else if (dev == 2) {
 761              		.loc 1 260 10 view .LVU207
 762 0038 074B     		ldr	r3, .L59+4
 763 003a 1D46     		mov	r5, r3
 764 003c E9E7     		b	.L52
 765              	.LVL62:
 766              	.L58:
 269:Core/Src/i2c.c **** 		log_printf("ERR: Failed to read memory from I2C module at address 0x%02x - err code %i\r\n",addr,
 767              		.loc 1 269 3 is_stmt 1 view .LVU208
 269:Core/Src/i2c.c **** 		log_printf("ERR: Failed to read memory from I2C module at address 0x%02x - err code %i\r\n",addr,
 768              		.loc 1 269 110 is_stmt 0 view .LVU209
 769 003e 6A6C     		ldr	r2, [r5, #68]
 269:Core/Src/i2c.c **** 		log_printf("ERR: Failed to read memory from I2C module at address 0x%02x - err code %i\r\n",addr,
 770              		.loc 1 269 3 view .LVU210
 771 0040 2146     		mov	r1, r4
 772 0042 0648     		ldr	r0, .L59+8
 773              	.LVL63:
 269:Core/Src/i2c.c **** 		log_printf("ERR: Failed to read memory from I2C module at address 0x%02x - err code %i\r\n",addr,
ARM GAS  /var/folders/gv/t2w3mcd17yl2fynvjl120d0m0000gn/T//ccdsAsHO.s 			page 21


 774              		.loc 1 269 3 view .LVU211
 775 0044 FFF7FEFF 		bl	log_printf
 776              	.LVL64:
 270:Core/Src/i2c.c **** 	}
 777              		.loc 1 270 3 is_stmt 1 view .LVU212
 778 0048 FFF7FEFF 		bl	Error_Handler
 779              	.LVL65:
 780 004c F0E7     		b	.L54
 781              	.LVL66:
 782              	.L56:
 264:Core/Src/i2c.c **** 	}
 783              		.loc 1 264 10 is_stmt 0 view .LVU213
 784 004e 0120     		movs	r0, #1
 785              	.LVL67:
 264:Core/Src/i2c.c **** 	}
 786              		.loc 1 264 10 view .LVU214
 787 0050 F0E7     		b	.L53
 788              	.L60:
 789 0052 00BF     		.align	2
 790              	.L59:
 791 0054 00000000 		.word	hi2c2
 792 0058 00000000 		.word	hi2c1
 793 005c 00000000 		.word	.LC1
 794              		.cfi_endproc
 795              	.LFE233:
 797              		.section	.rodata.Write_I2C_Reg.str1.4,"aMS",%progbits,1
 798              		.align	2
 799              	.LC2:
 800 0000 4552523A 		.ascii	"ERR: Failed to write data to I2C module at address "
 800      20466169 
 800      6C656420 
 800      746F2077 
 800      72697465 
 801 0033 30782530 		.ascii	"0x%02x - err code %i\015\012\000"
 801      3278202D 
 801      20657272 
 801      20636F64 
 801      65202569 
 802              		.section	.text.Write_I2C_Reg,"ax",%progbits
 803              		.align	1
 804              		.global	Write_I2C_Reg
 805              		.syntax unified
 806              		.thumb
 807              		.thumb_func
 809              	Write_I2C_Reg:
 810              	.LVL68:
 811              	.LFB234:
 274:Core/Src/i2c.c **** 
 275:Core/Src/i2c.c **** void Write_I2C_Reg(uint8_t addr, uint8_t reg, uint8_t data, uint8_t dev) {
 812              		.loc 1 275 74 is_stmt 1 view -0
 813              		.cfi_startproc
 814              		@ args = 0, pretend = 0, frame = 8
 815              		@ frame_needed = 0, uses_anonymous_args = 0
 816              		.loc 1 275 74 is_stmt 0 view .LVU216
 817 0000 30B5     		push	{r4, r5, lr}
 818              	.LCFI15:
 819              		.cfi_def_cfa_offset 12
ARM GAS  /var/folders/gv/t2w3mcd17yl2fynvjl120d0m0000gn/T//ccdsAsHO.s 			page 22


 820              		.cfi_offset 4, -12
 821              		.cfi_offset 5, -8
 822              		.cfi_offset 14, -4
 823 0002 85B0     		sub	sp, sp, #20
 824              	.LCFI16:
 825              		.cfi_def_cfa_offset 32
 826 0004 0446     		mov	r4, r0
 276:Core/Src/i2c.c **** 	I2C_HandleTypeDef* i2cdev;
 827              		.loc 1 276 2 is_stmt 1 view .LVU217
 277:Core/Src/i2c.c **** 	if (dev == 1) {
 828              		.loc 1 277 2 view .LVU218
 829              		.loc 1 277 5 is_stmt 0 view .LVU219
 830 0006 012B     		cmp	r3, #1
 831 0008 13D0     		beq	.L65
 278:Core/Src/i2c.c **** 		i2cdev = &hi2c1;
 279:Core/Src/i2c.c **** 	} else if (dev == 2) {
 832              		.loc 1 279 9 is_stmt 1 view .LVU220
 833              		.loc 1 279 12 is_stmt 0 view .LVU221
 834 000a 022B     		cmp	r3, #2
 835 000c 0FD1     		bne	.L61
 280:Core/Src/i2c.c **** 		i2cdev = &hi2c2;
 836              		.loc 1 280 10 view .LVU222
 837 000e 0E4B     		ldr	r3, .L69
 838              	.LVL69:
 839              		.loc 1 280 10 view .LVU223
 840 0010 1D46     		mov	r5, r3
 841              	.L62:
 842              	.LVL70:
 281:Core/Src/i2c.c **** 	} else {
 282:Core/Src/i2c.c **** 		return; // wrong device
 283:Core/Src/i2c.c **** 	}
 284:Core/Src/i2c.c **** 	uint8_t wr[2] = {reg,data};
 843              		.loc 1 284 2 is_stmt 1 view .LVU224
 844              		.loc 1 284 10 is_stmt 0 view .LVU225
 845 0012 8DF80C10 		strb	r1, [sp, #12]
 846 0016 8DF80D20 		strb	r2, [sp, #13]
 285:Core/Src/i2c.c **** 	uint8_t res = HAL_I2C_Master_Transmit(i2cdev,addr << 1,(uint8_t*)&wr,2,10000);
 847              		.loc 1 285 2 is_stmt 1 view .LVU226
 848              		.loc 1 285 16 is_stmt 0 view .LVU227
 849 001a 42F21073 		movw	r3, #10000
 850 001e 0093     		str	r3, [sp]
 851 0020 0223     		movs	r3, #2
 852 0022 03AA     		add	r2, sp, #12
 853              	.LVL71:
 854              		.loc 1 285 16 view .LVU228
 855 0024 6100     		lsls	r1, r4, #1
 856              	.LVL72:
 857              		.loc 1 285 16 view .LVU229
 858 0026 2846     		mov	r0, r5
 859              	.LVL73:
 860              		.loc 1 285 16 view .LVU230
 861 0028 FFF7FEFF 		bl	HAL_I2C_Master_Transmit
 862              	.LVL74:
 286:Core/Src/i2c.c **** 	if (res != HAL_OK) {
 863              		.loc 1 286 2 is_stmt 1 view .LVU231
 864              		.loc 1 286 5 is_stmt 0 view .LVU232
 865 002c 20B9     		cbnz	r0, .L68
ARM GAS  /var/folders/gv/t2w3mcd17yl2fynvjl120d0m0000gn/T//ccdsAsHO.s 			page 23


 866              	.LVL75:
 867              	.L61:
 287:Core/Src/i2c.c **** 		log_printf("ERR: Failed to write data to I2C module at address 0x%02x - err code %i\r\n",addr, (*
 288:Core/Src/i2c.c **** 		Error_Handler();
 289:Core/Src/i2c.c **** 	}
 290:Core/Src/i2c.c **** }
 868              		.loc 1 290 1 view .LVU233
 869 002e 05B0     		add	sp, sp, #20
 870              	.LCFI17:
 871              		.cfi_remember_state
 872              		.cfi_def_cfa_offset 12
 873              		@ sp needed
 874 0030 30BD     		pop	{r4, r5, pc}
 875              	.LVL76:
 876              	.L65:
 877              	.LCFI18:
 878              		.cfi_restore_state
 278:Core/Src/i2c.c **** 	} else if (dev == 2) {
 879              		.loc 1 278 10 view .LVU234
 880 0032 064B     		ldr	r3, .L69+4
 881              	.LVL77:
 278:Core/Src/i2c.c **** 	} else if (dev == 2) {
 882              		.loc 1 278 10 view .LVU235
 883 0034 1D46     		mov	r5, r3
 884 0036 ECE7     		b	.L62
 885              	.LVL78:
 886              	.L68:
 287:Core/Src/i2c.c **** 		log_printf("ERR: Failed to write data to I2C module at address 0x%02x - err code %i\r\n",addr, (*
 887              		.loc 1 287 3 is_stmt 1 view .LVU236
 287:Core/Src/i2c.c **** 		log_printf("ERR: Failed to write data to I2C module at address 0x%02x - err code %i\r\n",addr, (*
 888              		.loc 1 287 107 is_stmt 0 view .LVU237
 889 0038 6A6C     		ldr	r2, [r5, #68]
 287:Core/Src/i2c.c **** 		log_printf("ERR: Failed to write data to I2C module at address 0x%02x - err code %i\r\n",addr, (*
 890              		.loc 1 287 3 view .LVU238
 891 003a 2146     		mov	r1, r4
 892 003c 0448     		ldr	r0, .L69+8
 893              	.LVL79:
 287:Core/Src/i2c.c **** 		log_printf("ERR: Failed to write data to I2C module at address 0x%02x - err code %i\r\n",addr, (*
 894              		.loc 1 287 3 view .LVU239
 895 003e FFF7FEFF 		bl	log_printf
 896              	.LVL80:
 288:Core/Src/i2c.c **** 	}
 897              		.loc 1 288 3 is_stmt 1 view .LVU240
 898 0042 FFF7FEFF 		bl	Error_Handler
 899              	.LVL81:
 900 0046 F2E7     		b	.L61
 901              	.L70:
 902              		.align	2
 903              	.L69:
 904 0048 00000000 		.word	hi2c2
 905 004c 00000000 		.word	hi2c1
 906 0050 00000000 		.word	.LC2
 907              		.cfi_endproc
 908              	.LFE234:
 910              		.global	hi2c2
 911              		.section	.bss.hi2c2,"aw",%nobits
 912              		.align	2
ARM GAS  /var/folders/gv/t2w3mcd17yl2fynvjl120d0m0000gn/T//ccdsAsHO.s 			page 24


 915              	hi2c2:
 916 0000 00000000 		.space	84
 916      00000000 
 916      00000000 
 916      00000000 
 916      00000000 
 917              		.global	hi2c1
 918              		.section	.bss.hi2c1,"aw",%nobits
 919              		.align	2
 922              	hi2c1:
 923 0000 00000000 		.space	84
 923      00000000 
 923      00000000 
 923      00000000 
 923      00000000 
 924              		.text
 925              	.Letext0:
 926              		.file 2 "/Applications/ArmGNUToolchain/15.2.rel1/arm-none-eabi/arm-none-eabi/include/machine/_defa
 927              		.file 3 "/Applications/ArmGNUToolchain/15.2.rel1/arm-none-eabi/arm-none-eabi/include/sys/_stdint.h
 928              		.file 4 "Drivers/CMSIS/Device/ST/STM32L4xx/Include/stm32l476xx.h"
 929              		.file 5 "Drivers/STM32L4xx_HAL_Driver/Inc/stm32l4xx_hal_def.h"
 930              		.file 6 "Drivers/STM32L4xx_HAL_Driver/Inc/stm32l4xx_hal_rcc_ex.h"
 931              		.file 7 "Drivers/STM32L4xx_HAL_Driver/Inc/stm32l4xx_hal_gpio.h"
 932              		.file 8 "Drivers/STM32L4xx_HAL_Driver/Inc/stm32l4xx_hal_dma.h"
 933              		.file 9 "Drivers/STM32L4xx_HAL_Driver/Inc/stm32l4xx_hal_i2c.h"
 934              		.file 10 "Core/Inc/i2c.h"
 935              		.file 11 "Drivers/STM32L4xx_HAL_Driver/Inc/stm32l4xx_hal_i2c_ex.h"
 936              		.file 12 "Drivers/STM32L4xx_HAL_Driver/Inc/stm32l4xx_ll_dma.h"
 937              		.file 13 "Core/Inc/main.h"
 938              		.file 14 "<built-in>"
ARM GAS  /var/folders/gv/t2w3mcd17yl2fynvjl120d0m0000gn/T//ccdsAsHO.s 			page 25

