ARM GAS  /var/folders/gv/t2w3mcd17yl2fynvjl120d0m0000gn/T//ccUzLJxe.s 			page 1


   1              		.cpu cortex-m4
   2              		.arch armv7e-m
   3              		.fpu fpv4-sp-d16
   4              		.eabi_attribute 27, 1
   5              		.eabi_attribute 28, 1
   6              		.eabi_attribute 20, 1
   7              		.eabi_attribute 21, 1
   8              		.eabi_attribute 23, 3
   9              		.eabi_attribute 24, 1
  10              		.eabi_attribute 25, 1
  11              		.eabi_attribute 26, 1
  12              		.eabi_attribute 30, 1
  13              		.eabi_attribute 34, 1
  14              		.eabi_attribute 18, 4
  15              		.file	"peripherals.c"
  16              		.text
  17              	.Ltext0:
  18              		.cfi_sections	.debug_frame
  19              		.file 1 "Core/Src/peripherals.c"
  20              		.section	.text.toepoch,"ax",%progbits
  21              		.align	1
  22              		.syntax unified
  23              		.thumb
  24              		.thumb_func
  26              	toepoch:
  27              	.LFB233:
  28              		.file 2 "Core/Inc/datetime.h"
   1:Core/Inc/datetime.h **** #ifndef DATETIME_H
   2:Core/Inc/datetime.h **** #define DATETIME_H
   3:Core/Inc/datetime.h **** 
   4:Core/Inc/datetime.h **** #include <stdint.h>
   5:Core/Inc/datetime.h **** #include "stm32l4xx_hal_rtc.h"
   6:Core/Inc/datetime.h **** #include "libs.h"
   7:Core/Inc/datetime.h **** 
   8:Core/Inc/datetime.h **** #define EPOCH_YEAR 2000
   9:Core/Inc/datetime.h **** 
  10:Core/Inc/datetime.h **** extern RTC_HandleTypeDef hrtc;
  11:Core/Inc/datetime.h **** 
  12:Core/Inc/datetime.h **** static const uint8_t MONTH_DAYS[12] =
  13:Core/Inc/datetime.h **** {
  14:Core/Inc/datetime.h ****     31,28,31,30,31,30,31,31,30,31,30,31
  15:Core/Inc/datetime.h **** };
  16:Core/Inc/datetime.h **** 
  17:Core/Inc/datetime.h **** typedef struct
  18:Core/Inc/datetime.h **** {
  19:Core/Inc/datetime.h ****     RTC_TimeTypeDef ti;
  20:Core/Inc/datetime.h ****     RTC_DateTypeDef da;
  21:Core/Inc/datetime.h **** } DateTime;
  22:Core/Inc/datetime.h **** 
  23:Core/Inc/datetime.h **** static inline int is_leap_year(int year)
  24:Core/Inc/datetime.h **** {
  25:Core/Inc/datetime.h ****     /* For STM32 RTC years 2000-2099 this is sufficient */
  26:Core/Inc/datetime.h ****     return (year % 4) == 0;
  27:Core/Inc/datetime.h **** }
  28:Core/Inc/datetime.h **** 
  29:Core/Inc/datetime.h **** static inline uint8_t days_in_month(int year, int month)
  30:Core/Inc/datetime.h **** {
ARM GAS  /var/folders/gv/t2w3mcd17yl2fynvjl120d0m0000gn/T//ccUzLJxe.s 			page 2


  31:Core/Inc/datetime.h ****     if (month == 2 && is_leap_year(year))
  32:Core/Inc/datetime.h ****         return 29;
  33:Core/Inc/datetime.h **** 
  34:Core/Inc/datetime.h ****     return MONTH_DAYS[month - 1];
  35:Core/Inc/datetime.h **** }
  36:Core/Inc/datetime.h **** 
  37:Core/Inc/datetime.h **** static inline uint32_t toepoch(DateTime dt)
  38:Core/Inc/datetime.h **** {
  29              		.loc 2 38 1 view -0
  30              		.cfi_startproc
  31              		@ args = 24, pretend = 16, frame = 0
  32              		@ frame_needed = 0, uses_anonymous_args = 0
  33              		@ link register save eliminated.
  34 0000 84B0     		sub	sp, sp, #16
  35              	.LCFI0:
  36              		.cfi_def_cfa_offset 16
  37 0002 8DE80F00 		stm	sp, {r0, r1, r2, r3}
  39:Core/Inc/datetime.h ****     uint32_t seconds = 0;
  38              		.loc 2 39 5 view .LVU1
  39              	.LVL0:
  40:Core/Inc/datetime.h **** 
  41:Core/Inc/datetime.h ****     int year = EPOCH_YEAR + dt.da.Year;
  40              		.loc 2 41 5 view .LVU2
  41              		.loc 2 41 34 is_stmt 0 view .LVU3
  42 0006 9DF817C0 		ldrb	ip, [sp, #23]	@ zero_extendqisi2
  43              		.loc 2 41 9 view .LVU4
  44 000a 0CF5FA6C 		add	ip, ip, #2000
  45              	.LVL1:
  42:Core/Inc/datetime.h **** 
  43:Core/Inc/datetime.h ****     /* Add complete years */
  44:Core/Inc/datetime.h ****     for (int y = EPOCH_YEAR; y < year; y++)
  46              		.loc 2 44 5 is_stmt 1 view .LVU5
  47              	.LBB14:
  48              		.loc 2 44 10 view .LVU6
  49              		.loc 2 44 14 is_stmt 0 view .LVU7
  50 000e 4FF4FA63 		mov	r3, #2000
  51              	.LBE14:
  39:Core/Inc/datetime.h **** 
  52              		.loc 2 39 14 view .LVU8
  53 0012 0021     		movs	r1, #0
  54              	.LBB15:
  55              		.loc 2 44 5 view .LVU9
  56 0014 02E0     		b	.L2
  57              	.LVL2:
  58              	.L9:
  45:Core/Inc/datetime.h ****     {
  46:Core/Inc/datetime.h ****         seconds += (uint32_t)(is_leap_year(y) ? 366 : 365) * 86400ULL;
  59              		.loc 2 46 60 discriminator 3 view .LVU10
  60 0016 1D4A     		ldr	r2, .L14
  61              	.L3:
  62              		.loc 2 46 17 discriminator 5 view .LVU11
  63 0018 1144     		add	r1, r1, r2
  64              	.LVL3:
  44:Core/Inc/datetime.h ****     {
  65              		.loc 2 44 41 is_stmt 1 discriminator 2 view .LVU12
  66 001a 0133     		adds	r3, r3, #1
  67              	.LVL4:
ARM GAS  /var/folders/gv/t2w3mcd17yl2fynvjl120d0m0000gn/T//ccUzLJxe.s 			page 3


  68              	.L2:
  44:Core/Inc/datetime.h ****     {
  69              		.loc 2 44 32 discriminator 1 view .LVU13
  70 001c 6345     		cmp	r3, ip
  71 001e 04DA     		bge	.L12
  72              		.loc 2 46 9 view .LVU14
  73              		.loc 2 46 60 is_stmt 0 discriminator 1 view .LVU15
  74 0020 13F0030F 		tst	r3, #3
  75 0024 F7D1     		bne	.L9
  76              		.loc 2 46 60 discriminator 2 view .LVU16
  77 0026 1A4A     		ldr	r2, .L14+4
  78 0028 F6E7     		b	.L3
  79              	.L12:
  80              	.LBE15:
  81              	.LBB16:
  47:Core/Inc/datetime.h ****     }
  48:Core/Inc/datetime.h **** 
  49:Core/Inc/datetime.h ****     /* Add complete months */
  50:Core/Inc/datetime.h ****     for (int m = 1; m < dt.da.Month; m++)
  82              		.loc 2 50 14 view .LVU17
  83 002a 0122     		movs	r2, #1
  84 002c 0BE0     		b	.L5
  85              	.LVL5:
  86              	.L6:
  87              	.LBB17:
  88              	.LBB18:
  34:Core/Inc/datetime.h **** }
  89              		.loc 2 34 5 is_stmt 1 view .LVU18
  34:Core/Inc/datetime.h **** }
  90              		.loc 2 34 29 is_stmt 0 view .LVU19
  91 002e 531E     		subs	r3, r2, #1
  34:Core/Inc/datetime.h **** }
  92              		.loc 2 34 22 view .LVU20
  93 0030 1848     		ldr	r0, .L14+8
  94 0032 C35C     		ldrb	r3, [r0, r3]	@ zero_extendqisi2
  95              	.L7:
  96              	.LVL6:
  34:Core/Inc/datetime.h **** }
  97              		.loc 2 34 22 view .LVU21
  98              	.LBE18:
  99              	.LBE17:
  51:Core/Inc/datetime.h ****     {
  52:Core/Inc/datetime.h ****         seconds += (uint32_t)days_in_month(year, m) * 86400ULL;
 100              		.loc 2 52 53 discriminator 1 view .LVU22
 101 0034 03EB4303 		add	r3, r3, r3, lsl #1
 102 0038 C3EB0313 		rsb	r3, r3, r3, lsl #4
 103 003c C3EB0313 		rsb	r3, r3, r3, lsl #4
 104              		.loc 2 52 17 discriminator 1 view .LVU23
 105 0040 01EBC311 		add	r1, r1, r3, lsl #7
 106              	.LVL7:
  50:Core/Inc/datetime.h ****     {
 107              		.loc 2 50 39 is_stmt 1 discriminator 3 view .LVU24
 108 0044 0132     		adds	r2, r2, #1
 109              	.LVL8:
 110              	.L5:
  50:Core/Inc/datetime.h ****     {
 111              		.loc 2 50 23 discriminator 1 view .LVU25
ARM GAS  /var/folders/gv/t2w3mcd17yl2fynvjl120d0m0000gn/T//ccUzLJxe.s 			page 4


  50:Core/Inc/datetime.h ****     {
 112              		.loc 2 50 30 is_stmt 0 discriminator 1 view .LVU26
 113 0046 9DF81530 		ldrb	r3, [sp, #21]	@ zero_extendqisi2
  50:Core/Inc/datetime.h ****     {
 114              		.loc 2 50 23 discriminator 1 view .LVU27
 115 004a 9342     		cmp	r3, r2
 116 004c 06DD     		ble	.L13
 117              		.loc 2 52 9 is_stmt 1 view .LVU28
 118              	.LVL9:
 119              	.LBB20:
 120              	.LBI17:
  29:Core/Inc/datetime.h **** {
 121              		.loc 2 29 23 view .LVU29
 122              	.LBB19:
  31:Core/Inc/datetime.h ****         return 29;
 123              		.loc 2 31 5 view .LVU30
  31:Core/Inc/datetime.h ****         return 29;
 124              		.loc 2 31 8 is_stmt 0 view .LVU31
 125 004e 022A     		cmp	r2, #2
 126 0050 EDD1     		bne	.L6
  31:Core/Inc/datetime.h ****         return 29;
 127              		.loc 2 31 20 discriminator 2 view .LVU32
 128 0052 1CF0030F 		tst	ip, #3
 129 0056 EAD1     		bne	.L6
  32:Core/Inc/datetime.h **** 
 130              		.loc 2 32 16 view .LVU33
 131 0058 1D23     		movs	r3, #29
 132 005a EBE7     		b	.L7
 133              	.LVL10:
 134              	.L13:
  32:Core/Inc/datetime.h **** 
 135              		.loc 2 32 16 view .LVU34
 136              	.LBE19:
 137              	.LBE20:
 138              	.LBE16:
  53:Core/Inc/datetime.h ****     }
  54:Core/Inc/datetime.h **** 
  55:Core/Inc/datetime.h ****     /* Add complete days */
  56:Core/Inc/datetime.h ****     seconds += (uint32_t)(dt.da.Date - 1) * 86400ULL;
 139              		.loc 2 56 5 is_stmt 1 view .LVU35
 140              		.loc 2 56 32 is_stmt 0 view .LVU36
 141 005c 9DF81630 		ldrb	r3, [sp, #22]	@ zero_extendqisi2
 142              		.loc 2 56 38 view .LVU37
 143 0060 013B     		subs	r3, r3, #1
 144              		.loc 2 56 13 view .LVU38
 145 0062 0D4A     		ldr	r2, .L14+12
 146              	.LVL11:
 147              		.loc 2 56 13 view .LVU39
 148 0064 02FB0311 		mla	r1, r2, r3, r1
 149              	.LVL12:
  57:Core/Inc/datetime.h **** 
  58:Core/Inc/datetime.h ****     /*
  59:Core/Inc/datetime.h ****      * RTC configured in 24-hour mode.
  60:Core/Inc/datetime.h ****      * If using 12-hour mode, convert first.
  61:Core/Inc/datetime.h ****      */
  62:Core/Inc/datetime.h ****     seconds += (uint32_t)dt.ti.Hours * 3600ULL;
 150              		.loc 2 62 5 is_stmt 1 view .LVU40
ARM GAS  /var/folders/gv/t2w3mcd17yl2fynvjl120d0m0000gn/T//ccUzLJxe.s 			page 5


 151              		.loc 2 62 31 is_stmt 0 view .LVU41
 152 0068 9DF80030 		ldrb	r3, [sp]	@ zero_extendqisi2
 153              		.loc 2 62 13 view .LVU42
 154 006c 4FF46162 		mov	r2, #3600
 155 0070 02FB0311 		mla	r1, r2, r3, r1
 156              	.LVL13:
  63:Core/Inc/datetime.h ****     seconds += (uint32_t)dt.ti.Minutes * 60ULL;
 157              		.loc 2 63 5 is_stmt 1 view .LVU43
 158              		.loc 2 63 31 is_stmt 0 view .LVU44
 159 0074 9DF80130 		ldrb	r3, [sp, #1]	@ zero_extendqisi2
 160              		.loc 2 63 40 view .LVU45
 161 0078 C3EB0313 		rsb	r3, r3, r3, lsl #4
 162              		.loc 2 63 13 view .LVU46
 163 007c 01EB8301 		add	r1, r1, r3, lsl #2
 164              	.LVL14:
  64:Core/Inc/datetime.h ****     seconds += (uint32_t)dt.ti.Seconds;
 165              		.loc 2 64 5 is_stmt 1 view .LVU47
 166              		.loc 2 64 31 is_stmt 0 view .LVU48
 167 0080 9DF80200 		ldrb	r0, [sp, #2]	@ zero_extendqisi2
 168              	.LVL15:
  65:Core/Inc/datetime.h ****     return seconds;
 169              		.loc 2 65 5 is_stmt 1 view .LVU49
  66:Core/Inc/datetime.h **** }
 170              		.loc 2 66 1 is_stmt 0 view .LVU50
 171 0084 0844     		add	r0, r0, r1
 172              	.LVL16:
 173              		.loc 2 66 1 view .LVU51
 174 0086 04B0     		add	sp, sp, #16
 175              	.LCFI1:
 176              		.cfi_def_cfa_offset 0
 177 0088 7047     		bx	lr
 178              	.L15:
 179 008a 00BF     		.align	2
 180              	.L14:
 181 008c 8033E101 		.word	31536000
 182 0090 0085E201 		.word	31622400
 183 0094 00000000 		.word	MONTH_DAYS
 184 0098 80510100 		.word	86400
 185              		.cfi_endproc
 186              	.LFE233:
 188              		.section	.text.bmi270_write,"ax",%progbits
 189              		.align	1
 190              		.global	bmi270_write
 191              		.syntax unified
 192              		.thumb
 193              		.thumb_func
 195              	bmi270_write:
 196              	.LVL17:
 197              	.LFB237:
   1:Core/Src/peripherals.c **** #include "libs.h"
   2:Core/Src/peripherals.c **** #include "main.h"
   3:Core/Src/peripherals.c **** #include "sdmmc.h"
   4:Core/Src/peripherals.c **** #include "dma.h"
   5:Core/Src/peripherals.c **** #include "gpio.h"
   6:Core/Src/peripherals.c **** 
   7:Core/Src/peripherals.c **** extern const uint8_t bmi270_config_file[];
   8:Core/Src/peripherals.c **** 
ARM GAS  /var/folders/gv/t2w3mcd17yl2fynvjl120d0m0000gn/T//ccUzLJxe.s 			page 6


   9:Core/Src/peripherals.c **** struct bmi2_dev bmi270 = {0};
  10:Core/Src/peripherals.c **** 
  11:Core/Src/peripherals.c **** struct bmi2_fifo_frame fifo = {0};
  12:Core/Src/peripherals.c **** 
  13:Core/Src/peripherals.c **** extern void delay_us(uint32_t us, void *intf_ptr);
  14:Core/Src/peripherals.c **** 
  15:Core/Src/peripherals.c **** uint32_t startTime;
  16:Core/Src/peripherals.c **** int16_t bmi2_data[MAX_FIFO_FRAMES * 3 * 2];
  17:Core/Src/peripherals.c **** uint32_t payload_size;
  18:Core/Src/peripherals.c **** 
  19:Core/Src/peripherals.c **** uint8_t fifo_buffer[1024];
  20:Core/Src/peripherals.c **** 
  21:Core/Src/peripherals.c **** volatile uint8_t gps_char;
  22:Core/Src/peripherals.c **** uint8_t nmea_recv[128];
  23:Core/Src/peripherals.c **** uint8_t saved_rmc[128];
  24:Core/Src/peripherals.c **** volatile uint16_t gps_idx = 0;
  25:Core/Src/peripherals.c **** volatile uint8_t rmc_ready = 0;
  26:Core/Src/peripherals.c **** uint32_t totalEnergyUsed = 0;
  27:Core/Src/peripherals.c **** uint16_t lastAcc = 0;
  28:Core/Src/peripherals.c **** 
  29:Core/Src/peripherals.c **** HAL_StatusTypeDef lock_huart() {
  30:Core/Src/peripherals.c ****     __HAL_LOCK(&huart1);
  31:Core/Src/peripherals.c **** }
  32:Core/Src/peripherals.c **** 
  33:Core/Src/peripherals.c **** int8_t bmi270_write(uint8_t reg, const uint8_t *data, uint32_t len, void *intf_ptr)
  34:Core/Src/peripherals.c **** {
 198              		.loc 1 34 1 is_stmt 1 view -0
 199              		.cfi_startproc
 200              		@ args = 0, pretend = 0, frame = 0
 201              		@ frame_needed = 0, uses_anonymous_args = 0
 202              		.loc 1 34 1 is_stmt 0 view .LVU53
 203 0000 00B5     		push	{lr}
 204              	.LCFI2:
 205              		.cfi_def_cfa_offset 4
 206              		.cfi_offset 14, -4
 207 0002 85B0     		sub	sp, sp, #20
 208              	.LCFI3:
 209              		.cfi_def_cfa_offset 24
  35:Core/Src/peripherals.c ****     int res = HAL_I2C_Mem_Write(&hi2c2,
 210              		.loc 1 35 5 is_stmt 1 view .LVU54
 211              		.loc 1 35 15 is_stmt 0 view .LVU55
 212 0004 4FF0FF33 		mov	r3, #-1
 213              	.LVL18:
 214              		.loc 1 35 15 view .LVU56
 215 0008 0293     		str	r3, [sp, #8]
 216 000a 92B2     		uxth	r2, r2
 217              	.LVL19:
 218              		.loc 1 35 15 view .LVU57
 219 000c 0192     		str	r2, [sp, #4]
 220 000e 0091     		str	r1, [sp]
 221 0010 0123     		movs	r3, #1
 222 0012 0246     		mov	r2, r0
 223 0014 D021     		movs	r1, #208
 224              	.LVL20:
 225              		.loc 1 35 15 view .LVU58
 226 0016 0448     		ldr	r0, .L21
 227              	.LVL21:
ARM GAS  /var/folders/gv/t2w3mcd17yl2fynvjl120d0m0000gn/T//ccUzLJxe.s 			page 7


 228              		.loc 1 35 15 view .LVU59
 229 0018 FFF7FEFF 		bl	HAL_I2C_Mem_Write
 230              	.LVL22:
  36:Core/Src/peripherals.c ****                               BMI2_I2C_PRIM_ADDR << 1,
  37:Core/Src/peripherals.c ****                               reg,
  38:Core/Src/peripherals.c ****                               I2C_MEMADD_SIZE_8BIT,
  39:Core/Src/peripherals.c ****                               (uint8_t*)data,
  40:Core/Src/peripherals.c ****                               len,
  41:Core/Src/peripherals.c ****                               HAL_MAX_DELAY);
  42:Core/Src/peripherals.c ****     if (res != HAL_OK) {
 231              		.loc 1 42 5 is_stmt 1 view .LVU60
 232              		.loc 1 42 8 is_stmt 0 view .LVU61
 233 001c 08B9     		cbnz	r0, .L20
 234              	.LVL23:
 235              	.L17:
  43:Core/Src/peripherals.c ****       return BMI2_E_COM_FAIL;
  44:Core/Src/peripherals.c ****     }
  45:Core/Src/peripherals.c ****     return BMI2_OK;
  46:Core/Src/peripherals.c **** }
 236              		.loc 1 46 1 view .LVU62
 237 001e 05B0     		add	sp, sp, #20
 238              	.LCFI4:
 239              		.cfi_remember_state
 240              		.cfi_def_cfa_offset 4
 241              		@ sp needed
 242 0020 00BD     		pop	{pc}
 243              	.LVL24:
 244              	.L20:
 245              	.LCFI5:
 246              		.cfi_restore_state
  43:Core/Src/peripherals.c ****       return BMI2_E_COM_FAIL;
 247              		.loc 1 43 14 view .LVU63
 248 0022 6FF00100 		mvn	r0, #1
 249              	.LVL25:
  43:Core/Src/peripherals.c ****       return BMI2_E_COM_FAIL;
 250              		.loc 1 43 14 view .LVU64
 251 0026 FAE7     		b	.L17
 252              	.L22:
 253              		.align	2
 254              	.L21:
 255 0028 00000000 		.word	hi2c2
 256              		.cfi_endproc
 257              	.LFE237:
 259              		.section	.text.bmi270_read,"ax",%progbits
 260              		.align	1
 261              		.global	bmi270_read
 262              		.syntax unified
 263              		.thumb
 264              		.thumb_func
 266              	bmi270_read:
 267              	.LVL26:
 268              	.LFB238:
  47:Core/Src/peripherals.c **** 
  48:Core/Src/peripherals.c **** int8_t bmi270_read(uint8_t reg, uint8_t *data, uint32_t len, void *intf_ptr)
  49:Core/Src/peripherals.c **** {
 269              		.loc 1 49 1 is_stmt 1 view -0
 270              		.cfi_startproc
ARM GAS  /var/folders/gv/t2w3mcd17yl2fynvjl120d0m0000gn/T//ccUzLJxe.s 			page 8


 271              		@ args = 0, pretend = 0, frame = 0
 272              		@ frame_needed = 0, uses_anonymous_args = 0
 273              		.loc 1 49 1 is_stmt 0 view .LVU66
 274 0000 00B5     		push	{lr}
 275              	.LCFI6:
 276              		.cfi_def_cfa_offset 4
 277              		.cfi_offset 14, -4
 278 0002 85B0     		sub	sp, sp, #20
 279              	.LCFI7:
 280              		.cfi_def_cfa_offset 24
  50:Core/Src/peripherals.c ****     int res = HAL_I2C_Mem_Read(&hi2c2,
 281              		.loc 1 50 5 is_stmt 1 view .LVU67
 282              		.loc 1 50 15 is_stmt 0 view .LVU68
 283 0004 4FF0FF33 		mov	r3, #-1
 284              	.LVL27:
 285              		.loc 1 50 15 view .LVU69
 286 0008 0293     		str	r3, [sp, #8]
 287 000a 92B2     		uxth	r2, r2
 288              	.LVL28:
 289              		.loc 1 50 15 view .LVU70
 290 000c 0192     		str	r2, [sp, #4]
 291 000e 0091     		str	r1, [sp]
 292 0010 0123     		movs	r3, #1
 293 0012 0246     		mov	r2, r0
 294 0014 D021     		movs	r1, #208
 295              	.LVL29:
 296              		.loc 1 50 15 view .LVU71
 297 0016 0448     		ldr	r0, .L28
 298              	.LVL30:
 299              		.loc 1 50 15 view .LVU72
 300 0018 FFF7FEFF 		bl	HAL_I2C_Mem_Read
 301              	.LVL31:
  51:Core/Src/peripherals.c ****                              BMI2_I2C_PRIM_ADDR << 1,
  52:Core/Src/peripherals.c ****                              reg,
  53:Core/Src/peripherals.c ****                              I2C_MEMADD_SIZE_8BIT,
  54:Core/Src/peripherals.c ****                              data,
  55:Core/Src/peripherals.c ****                              len,
  56:Core/Src/peripherals.c ****                              HAL_MAX_DELAY);
  57:Core/Src/peripherals.c ****     if (res != HAL_OK) {
 302              		.loc 1 57 5 is_stmt 1 view .LVU73
 303              		.loc 1 57 8 is_stmt 0 view .LVU74
 304 001c 08B9     		cbnz	r0, .L27
 305              	.LVL32:
 306              	.L24:
  58:Core/Src/peripherals.c ****       return BMI2_E_COM_FAIL;
  59:Core/Src/peripherals.c ****     }
  60:Core/Src/peripherals.c ****     return BMI2_OK;
  61:Core/Src/peripherals.c **** }
 307              		.loc 1 61 1 view .LVU75
 308 001e 05B0     		add	sp, sp, #20
 309              	.LCFI8:
 310              		.cfi_remember_state
 311              		.cfi_def_cfa_offset 4
 312              		@ sp needed
 313 0020 00BD     		pop	{pc}
 314              	.LVL33:
 315              	.L27:
ARM GAS  /var/folders/gv/t2w3mcd17yl2fynvjl120d0m0000gn/T//ccUzLJxe.s 			page 9


 316              	.LCFI9:
 317              		.cfi_restore_state
  58:Core/Src/peripherals.c ****       return BMI2_E_COM_FAIL;
 318              		.loc 1 58 14 view .LVU76
 319 0022 6FF00100 		mvn	r0, #1
 320              	.LVL34:
  58:Core/Src/peripherals.c ****       return BMI2_E_COM_FAIL;
 321              		.loc 1 58 14 view .LVU77
 322 0026 FAE7     		b	.L24
 323              	.L29:
 324              		.align	2
 325              	.L28:
 326 0028 00000000 		.word	hi2c2
 327              		.cfi_endproc
 328              	.LFE238:
 330              		.section	.text.rtcElapsed,"ax",%progbits
 331              		.align	1
 332              		.syntax unified
 333              		.thumb
 334              		.thumb_func
 336              	rtcElapsed:
 337              	.LFB235:
  67:Core/Inc/datetime.h **** 
  68:Core/Inc/datetime.h **** static inline DateTime fromepoch(uint32_t epoch)
  69:Core/Inc/datetime.h **** {
  70:Core/Inc/datetime.h ****     DateTime dt = {0};
  71:Core/Inc/datetime.h **** 
  72:Core/Inc/datetime.h ****     int year = EPOCH_YEAR;
  73:Core/Inc/datetime.h **** 
  74:Core/Inc/datetime.h ****     /* Determine year */
  75:Core/Inc/datetime.h ****     while (1)
  76:Core/Inc/datetime.h ****     {
  77:Core/Inc/datetime.h ****         uint32_t year_seconds =
  78:Core/Inc/datetime.h ****             (uint32_t)(is_leap_year(year) ? 366 : 365) * 86400ULL;
  79:Core/Inc/datetime.h **** 
  80:Core/Inc/datetime.h ****         if (epoch < year_seconds)
  81:Core/Inc/datetime.h ****             break;
  82:Core/Inc/datetime.h **** 
  83:Core/Inc/datetime.h ****         epoch -= year_seconds;
  84:Core/Inc/datetime.h ****         year++;
  85:Core/Inc/datetime.h ****     }
  86:Core/Inc/datetime.h **** 
  87:Core/Inc/datetime.h ****     dt.da.Year = year - EPOCH_YEAR;
  88:Core/Inc/datetime.h **** 
  89:Core/Inc/datetime.h ****     /* Determine month */
  90:Core/Inc/datetime.h ****     int month = 1;
  91:Core/Inc/datetime.h **** 
  92:Core/Inc/datetime.h ****     while (1)
  93:Core/Inc/datetime.h ****     {
  94:Core/Inc/datetime.h ****         uint32_t month_seconds =
  95:Core/Inc/datetime.h ****             (uint32_t)days_in_month(year, month) * 86400ULL;
  96:Core/Inc/datetime.h **** 
  97:Core/Inc/datetime.h ****         if (epoch < month_seconds)
  98:Core/Inc/datetime.h ****             break;
  99:Core/Inc/datetime.h **** 
 100:Core/Inc/datetime.h ****         epoch -= month_seconds;
 101:Core/Inc/datetime.h ****         month++;
ARM GAS  /var/folders/gv/t2w3mcd17yl2fynvjl120d0m0000gn/T//ccUzLJxe.s 			page 10


 102:Core/Inc/datetime.h ****     }
 103:Core/Inc/datetime.h **** 
 104:Core/Inc/datetime.h ****     dt.da.Month = month;
 105:Core/Inc/datetime.h **** 
 106:Core/Inc/datetime.h ****     /* Determine day */
 107:Core/Inc/datetime.h ****     dt.da.Date = (epoch / 86400ULL) + 1;
 108:Core/Inc/datetime.h ****     epoch %= 86400ULL;
 109:Core/Inc/datetime.h **** 
 110:Core/Inc/datetime.h ****     /* Hour */
 111:Core/Inc/datetime.h ****     dt.ti.Hours = epoch / 3600ULL;
 112:Core/Inc/datetime.h ****     epoch %= 3600ULL;
 113:Core/Inc/datetime.h **** 
 114:Core/Inc/datetime.h ****     /* Minute */
 115:Core/Inc/datetime.h ****     dt.ti.Minutes = epoch / 60ULL;
 116:Core/Inc/datetime.h **** 
 117:Core/Inc/datetime.h ****     /* Second */
 118:Core/Inc/datetime.h ****     dt.ti.Seconds = epoch % 60ULL;
 119:Core/Inc/datetime.h **** 
 120:Core/Inc/datetime.h ****     return dt;
 121:Core/Inc/datetime.h **** }
 122:Core/Inc/datetime.h **** 
 123:Core/Inc/datetime.h **** static uint32_t rtcElapsed() {
 338              		.loc 2 123 30 is_stmt 1 view -0
 339              		.cfi_startproc
 340              		@ args = 0, pretend = 0, frame = 48
 341              		@ frame_needed = 0, uses_anonymous_args = 0
 342 0000 70B5     		push	{r4, r5, r6, lr}
 343              	.LCFI10:
 344              		.cfi_def_cfa_offset 16
 345              		.cfi_offset 4, -16
 346              		.cfi_offset 5, -12
 347              		.cfi_offset 6, -8
 348              		.cfi_offset 14, -4
 349 0002 8EB0     		sub	sp, sp, #56
 350              	.LCFI11:
 351              		.cfi_def_cfa_offset 72
 124:Core/Inc/datetime.h **** 	RTC_TimeTypeDef ti = {0};
 352              		.loc 2 124 2 view .LVU79
 353              		.loc 2 124 18 is_stmt 0 view .LVU80
 354 0004 03AC     		add	r4, sp, #12
 355 0006 0025     		movs	r5, #0
 356 0008 0395     		str	r5, [sp, #12]
 357 000a 0495     		str	r5, [sp, #16]
 358 000c 0595     		str	r5, [sp, #20]
 359 000e 0695     		str	r5, [sp, #24]
 360 0010 0795     		str	r5, [sp, #28]
 125:Core/Inc/datetime.h **** 	RTC_DateTypeDef da = {0};
 361              		.loc 2 125 2 is_stmt 1 view .LVU81
 362              		.loc 2 125 18 is_stmt 0 view .LVU82
 363 0012 0295     		str	r5, [sp, #8]
 126:Core/Inc/datetime.h **** 
 127:Core/Inc/datetime.h **** 	HAL_RTC_GetTime(&hrtc, &ti, RTC_FORMAT_BIN);
 364              		.loc 2 127 2 is_stmt 1 view .LVU83
 365 0014 0F4E     		ldr	r6, .L32
 366 0016 2A46     		mov	r2, r5
 367 0018 2146     		mov	r1, r4
 368 001a 3046     		mov	r0, r6
ARM GAS  /var/folders/gv/t2w3mcd17yl2fynvjl120d0m0000gn/T//ccUzLJxe.s 			page 11


 369 001c FFF7FEFF 		bl	HAL_RTC_GetTime
 370              	.LVL35:
 128:Core/Inc/datetime.h **** 	HAL_RTC_GetDate(&hrtc, &da, RTC_FORMAT_BIN);
 371              		.loc 2 128 2 view .LVU84
 372 0020 2A46     		mov	r2, r5
 373 0022 02A9     		add	r1, sp, #8
 374 0024 3046     		mov	r0, r6
 375 0026 FFF7FEFF 		bl	HAL_RTC_GetDate
 376              	.LVL36:
 129:Core/Inc/datetime.h **** 
 130:Core/Inc/datetime.h **** 	return toepoch((DateTime){ti,da});
 377              		.loc 2 130 2 view .LVU85
 378              		.loc 2 130 27 is_stmt 0 view .LVU86
 379 002a 08AD     		add	r5, sp, #32
 380 002c A446     		mov	ip, r4
 381 002e BCE80F00 		ldmia	ip!, {r0, r1, r2, r3}
 382 0032 0FC5     		stmia	r5!, {r0, r1, r2, r3}
 383 0034 DCF80030 		ldr	r3, [ip]
 384 0038 2B60     		str	r3, [r5]
 385 003a 029B     		ldr	r3, [sp, #8]
 386 003c 0D93     		str	r3, [sp, #52]
 387              		.loc 2 130 9 view .LVU87
 388 003e 0EAB     		add	r3, sp, #56
 389 0040 13E90300 		ldmdb	r3, {r0, r1}
 390 0044 8DE80300 		stm	sp, {r0, r1}
 391 0048 08AB     		add	r3, sp, #32
 392 004a 0FCB     		ldm	r3, {r0, r1, r2, r3}
 393 004c FFF7FEFF 		bl	toepoch
 394              	.LVL37:
 131:Core/Inc/datetime.h **** }
 395              		.loc 2 131 1 view .LVU88
 396 0050 0EB0     		add	sp, sp, #56
 397              	.LCFI12:
 398              		.cfi_def_cfa_offset 16
 399              		@ sp needed
 400 0052 70BD     		pop	{r4, r5, r6, pc}
 401              	.L33:
 402              		.align	2
 403              	.L32:
 404 0054 00000000 		.word	hrtc
 405              		.cfi_endproc
 406              	.LFE235:
 408              		.section	.text.lock_huart,"ax",%progbits
 409              		.align	1
 410              		.global	lock_huart
 411              		.syntax unified
 412              		.thumb
 413              		.thumb_func
 415              	lock_huart:
 416              	.LFB236:
  29:Core/Src/peripherals.c ****     __HAL_LOCK(&huart1);
 417              		.loc 1 29 32 is_stmt 1 view -0
 418              		.cfi_startproc
 419              		@ args = 0, pretend = 0, frame = 0
 420              		@ frame_needed = 0, uses_anonymous_args = 0
 421              		@ link register save eliminated.
  30:Core/Src/peripherals.c **** }
ARM GAS  /var/folders/gv/t2w3mcd17yl2fynvjl120d0m0000gn/T//ccUzLJxe.s 			page 12


 422              		.loc 1 30 5 view .LVU90
  30:Core/Src/peripherals.c **** }
 423              		.loc 1 30 5 view .LVU91
 424 0000 054B     		ldr	r3, .L37
 425 0002 93F87830 		ldrb	r3, [r3, #120]	@ zero_extendqisi2
 426 0006 012B     		cmp	r3, #1
 427 0008 04D0     		beq	.L36
  30:Core/Src/peripherals.c **** }
 428              		.loc 1 30 5 discriminator 2 view .LVU92
 429 000a 034B     		ldr	r3, .L37
 430 000c 0122     		movs	r2, #1
 431 000e 83F87820 		strb	r2, [r3, #120]
  30:Core/Src/peripherals.c **** }
 432              		.loc 1 30 5 view .LVU93
  31:Core/Src/peripherals.c **** 
 433              		.loc 1 31 1 is_stmt 0 view .LVU94
 434 0012 7047     		bx	lr
 435              	.L36:
  30:Core/Src/peripherals.c **** }
 436              		.loc 1 30 5 is_stmt 1 discriminator 1 view .LVU95
  30:Core/Src/peripherals.c **** }
 437              		.loc 1 30 5 is_stmt 0 discriminator 3 view .LVU96
 438 0014 0220     		movs	r0, #2
  30:Core/Src/peripherals.c **** }
 439              		.loc 1 30 5 view .LVU97
 440 0016 7047     		bx	lr
 441              	.L38:
 442              		.align	2
 443              	.L37:
 444 0018 00000000 		.word	huart1
 445              		.cfi_endproc
 446              	.LFE236:
 448              		.section	.rodata.initBMI270.str1.4,"aMS",%progbits,1
 449              		.align	2
 450              	.LC0:
 451 0000 626D6932 		.ascii	"bmi270 cfg @ %p: 0x%02x 0x%02x\012\000"
 451      37302063 
 451      66672040 
 451      2025703A 
 451      20307825 
 452              		.align	2
 453              	.LC1:
 454 0020 43686970 		.ascii	"Chip ID: 0x%02x, result success: %i\012\000"
 454      2049443A 
 454      20307825 
 454      3032782C 
 454      20726573 
 455 0045 000000   		.align	2
 456              	.LC2:
 457 0048 4661696C 		.ascii	"Failed to initialize BMI270: err %i\012\000"
 457      65642074 
 457      6F20696E 
 457      69746961 
 457      6C697A65 
 458 006d 000000   		.align	2
 459              	.LC3:
 460 0070 4661696C 		.ascii	"Failed to soft reset BMI270: err %i\012\000"
ARM GAS  /var/folders/gv/t2w3mcd17yl2fynvjl120d0m0000gn/T//ccUzLJxe.s 			page 13


 460      65642074 
 460      6F20736F 
 460      66742072 
 460      65736574 
 461 0095 000000   		.align	2
 462              	.LC4:
 463 0098 4661696C 		.ascii	"Failed to enable BMI270: err %i\012\000"
 463      65642074 
 463      6F20656E 
 463      61626C65 
 463      20424D49 
 464 00b9 000000   		.align	2
 465              	.LC5:
 466 00bc 424D4932 		.ascii	"BMI270: Failed to set FIFO config: err %i\012\000"
 466      37303A20 
 466      4661696C 
 466      65642074 
 466      6F207365 
 467 00e7 00       		.align	2
 468              	.LC6:
 469 00e8 424D4932 		.ascii	"BMI270: Failed to enable FIFO watermark: err %i\012"
 469      37303A20 
 469      4661696C 
 469      65642074 
 469      6F20656E 
 470 0118 00       		.ascii	"\000"
 471 0119 000000   		.align	2
 472              	.LC7:
 473 011c 424D4932 		.ascii	"BMI270: Failed to enable INT1: err %i\012\000"
 473      37303A20 
 473      4661696C 
 473      65642074 
 473      6F20656E 
 474 0143 00       		.align	2
 475              	.LC8:
 476 0144 424D4932 		.ascii	"BMI270: Failed to enable WM interrupts: err %i\012\000"
 476      37303A20 
 476      4661696C 
 476      65642074 
 476      6F20656E 
 477              		.align	2
 478              	.LC9:
 479 0174 424D4932 		.ascii	"BMI270 Initialization successful!\000"
 479      37302049 
 479      6E697469 
 479      616C697A 
 479      6174696F 
 480              		.section	.text.initBMI270,"ax",%progbits
 481              		.align	1
 482              		.global	initBMI270
 483              		.syntax unified
 484              		.thumb
 485              		.thumb_func
 487              	initBMI270:
 488              	.LFB239:
  62:Core/Src/peripherals.c **** 
  63:Core/Src/peripherals.c **** int initBMI270() {
ARM GAS  /var/folders/gv/t2w3mcd17yl2fynvjl120d0m0000gn/T//ccUzLJxe.s 			page 14


 489              		.loc 1 63 18 is_stmt 1 view -0
 490              		.cfi_startproc
 491              		@ args = 0, pretend = 0, frame = 80
 492              		@ frame_needed = 0, uses_anonymous_args = 0
 493 0000 2DE9F041 		push	{r4, r5, r6, r7, r8, lr}
 494              	.LCFI13:
 495              		.cfi_def_cfa_offset 24
 496              		.cfi_offset 4, -24
 497              		.cfi_offset 5, -20
 498              		.cfi_offset 6, -16
 499              		.cfi_offset 7, -12
 500              		.cfi_offset 8, -8
 501              		.cfi_offset 14, -4
 502 0004 98B0     		sub	sp, sp, #96
 503              	.LCFI14:
 504              		.cfi_def_cfa_offset 120
  64:Core/Src/peripherals.c ****     bmi270.read = bmi270_read;
 505              		.loc 1 64 5 view .LVU99
 506              		.loc 1 64 17 is_stmt 0 view .LVU100
 507 0006 644C     		ldr	r4, .L56
 508 0008 644B     		ldr	r3, .L56+4
 509 000a A363     		str	r3, [r4, #56]
  65:Core/Src/peripherals.c ****     bmi270.write = bmi270_write;
 510              		.loc 1 65 5 is_stmt 1 view .LVU101
 511              		.loc 1 65 18 is_stmt 0 view .LVU102
 512 000c 644B     		ldr	r3, .L56+8
 513 000e E363     		str	r3, [r4, #60]
  66:Core/Src/peripherals.c ****     bmi270.delay_us = delay_us;
 514              		.loc 1 66 5 is_stmt 1 view .LVU103
 515              		.loc 1 66 21 is_stmt 0 view .LVU104
 516 0010 644B     		ldr	r3, .L56+12
 517 0012 2364     		str	r3, [r4, #64]
  67:Core/Src/peripherals.c ****     bmi270.intf = BMI2_I2C_INTF;
 518              		.loc 1 67 5 is_stmt 1 view .LVU105
 519              		.loc 1 67 17 is_stmt 0 view .LVU106
 520 0014 0126     		movs	r6, #1
 521 0016 6672     		strb	r6, [r4, #9]
  68:Core/Src/peripherals.c ****     bmi270.config_file_ptr = nullptr;
 522              		.loc 1 68 5 is_stmt 1 view .LVU107
 523              		.loc 1 68 28 is_stmt 0 view .LVU108
 524 0018 0025     		movs	r5, #0
 525 001a 6561     		str	r5, [r4, #20]
  69:Core/Src/peripherals.c ****     printf("bmi270 cfg @ %p: 0x%02x 0x%02x\n",bmi270_config_file, bmi270_config_file[0], bmi270_con
 526              		.loc 1 69 5 is_stmt 1 view .LVU109
 527              		.loc 1 69 85 is_stmt 0 view .LVU110
 528 001c 6249     		ldr	r1, .L56+16
 529              		.loc 1 69 5 view .LVU111
 530 001e 4B78     		ldrb	r3, [r1, #1]	@ zero_extendqisi2
 531 0020 0A78     		ldrb	r2, [r1]	@ zero_extendqisi2
 532 0022 6248     		ldr	r0, .L56+20
 533 0024 FFF7FEFF 		bl	printf
 534              	.LVL38:
  70:Core/Src/peripherals.c ****     uint8_t chip_id = 0x00;
 535              		.loc 1 70 5 is_stmt 1 view .LVU112
 536              		.loc 1 70 13 is_stmt 0 view .LVU113
 537 0028 8DF85F50 		strb	r5, [sp, #95]
  71:Core/Src/peripherals.c ****     int res = HAL_I2C_Mem_Read(&hi2c2,
ARM GAS  /var/folders/gv/t2w3mcd17yl2fynvjl120d0m0000gn/T//ccUzLJxe.s 			page 15


 538              		.loc 1 71 5 is_stmt 1 view .LVU114
 539              		.loc 1 71 15 is_stmt 0 view .LVU115
 540 002c 4FF0FF33 		mov	r3, #-1
 541 0030 0293     		str	r3, [sp, #8]
 542 0032 0196     		str	r6, [sp, #4]
 543 0034 0DF15F03 		add	r3, sp, #95
 544 0038 0093     		str	r3, [sp]
 545 003a 3346     		mov	r3, r6
 546 003c 2A46     		mov	r2, r5
 547 003e D021     		movs	r1, #208
 548 0040 5B48     		ldr	r0, .L56+24
 549 0042 FFF7FEFF 		bl	HAL_I2C_Mem_Read
 550              	.LVL39:
 551 0046 0246     		mov	r2, r0
 552              	.LVL40:
  72:Core/Src/peripherals.c ****                     BMI2_I2C_PRIM_ADDR << 1,
  73:Core/Src/peripherals.c ****                     BMI2_CHIP_ID_ADDR,
  74:Core/Src/peripherals.c ****                     I2C_MEMADD_SIZE_8BIT,
  75:Core/Src/peripherals.c ****                     &chip_id,
  76:Core/Src/peripherals.c ****                     1,
  77:Core/Src/peripherals.c ****                     HAL_MAX_DELAY);
  78:Core/Src/peripherals.c ****     printf("Chip ID: 0x%02x, result success: %i\n",chip_id,res);
 553              		.loc 1 78 5 is_stmt 1 view .LVU116
 554 0048 9DF85F10 		ldrb	r1, [sp, #95]	@ zero_extendqisi2
 555 004c 5948     		ldr	r0, .L56+28
 556              	.LVL41:
 557              		.loc 1 78 5 is_stmt 0 view .LVU117
 558 004e FFF7FEFF 		bl	printf
 559              	.LVL42:
  79:Core/Src/peripherals.c **** 
  80:Core/Src/peripherals.c ****     int8_t rslt = bmi270_init(&bmi270);
 560              		.loc 1 80 5 is_stmt 1 view .LVU118
 561              		.loc 1 80 19 is_stmt 0 view .LVU119
 562 0052 2046     		mov	r0, r4
 563 0054 FFF7FEFF 		bl	bmi270_init
 564              	.LVL43:
  81:Core/Src/peripherals.c ****     if (rslt != BMI2_OK) {
 565              		.loc 1 81 5 is_stmt 1 view .LVU120
 566              		.loc 1 81 8 is_stmt 0 view .LVU121
 567 0058 0028     		cmp	r0, #0
 568 005a 74D1     		bne	.L49
  82:Core/Src/peripherals.c ****         // communication failed
  83:Core/Src/peripherals.c ****         printf("Failed to initialize BMI270: err %i\n",rslt);
  84:Core/Src/peripherals.c ****         return rslt;
  85:Core/Src/peripherals.c ****     }
  86:Core/Src/peripherals.c **** 
  87:Core/Src/peripherals.c ****     rslt = bmi2_soft_reset(&bmi270);
 569              		.loc 1 87 5 is_stmt 1 view .LVU122
 570              		.loc 1 87 12 is_stmt 0 view .LVU123
 571 005c 4E4D     		ldr	r5, .L56
 572 005e 2846     		mov	r0, r5
 573              	.LVL44:
 574              		.loc 1 87 12 view .LVU124
 575 0060 FFF7FEFF 		bl	bmi2_soft_reset
 576              	.LVL45:
 577 0064 0446     		mov	r4, r0
 578              	.LVL46:
ARM GAS  /var/folders/gv/t2w3mcd17yl2fynvjl120d0m0000gn/T//ccUzLJxe.s 			page 16


  88:Core/Src/peripherals.c ****     bmi270.delay_us(2000,&bmi270);
 579              		.loc 1 88 5 is_stmt 1 view .LVU125
 580              		.loc 1 88 11 is_stmt 0 view .LVU126
 581 0066 2B6C     		ldr	r3, [r5, #64]
 582              		.loc 1 88 5 view .LVU127
 583 0068 2946     		mov	r1, r5
 584 006a 4FF4FA60 		mov	r0, #2000
 585 006e 9847     		blx	r3
 586              	.LVL47:
  89:Core/Src/peripherals.c ****     if (rslt != BMI2_OK) {
 587              		.loc 1 89 5 is_stmt 1 view .LVU128
 588              		.loc 1 89 8 is_stmt 0 view .LVU129
 589 0070 002C     		cmp	r4, #0
 590 0072 71D1     		bne	.L50
  90:Core/Src/peripherals.c ****         // communication failed
  91:Core/Src/peripherals.c ****         printf("Failed to soft reset BMI270: err %i\n",rslt);
  92:Core/Src/peripherals.c ****         return rslt;
  93:Core/Src/peripherals.c ****     } 
  94:Core/Src/peripherals.c **** 
  95:Core/Src/peripherals.c ****     struct bmi2_sens_config config;
 591              		.loc 1 95 5 is_stmt 1 view .LVU130
  96:Core/Src/peripherals.c ****     config.type = BMI2_ACCEL;
 592              		.loc 1 96 5 view .LVU131
 593              		.loc 1 96 17 is_stmt 0 view .LVU132
 594 0074 8DF82840 		strb	r4, [sp, #40]
  97:Core/Src/peripherals.c ****     bmi2_get_sensor_config(&config,1,&bmi270);
 595              		.loc 1 97 5 is_stmt 1 view .LVU133
 596 0078 474C     		ldr	r4, .L56
 597              	.LVL48:
 598              		.loc 1 97 5 is_stmt 0 view .LVU134
 599 007a 0AAE     		add	r6, sp, #40
 600              	.LVL49:
 601              		.loc 1 97 5 view .LVU135
 602 007c 2246     		mov	r2, r4
 603 007e 0121     		movs	r1, #1
 604 0080 3046     		mov	r0, r6
 605 0082 FFF7FEFF 		bl	bmi2_get_sensor_config
 606              	.LVL50:
  98:Core/Src/peripherals.c ****     config.cfg.acc.odr = BMI2_ACC_ODR_100HZ;
 607              		.loc 1 98 5 is_stmt 1 view .LVU136
 608              		.loc 1 98 24 is_stmt 0 view .LVU137
 609 0086 4FF00807 		mov	r7, #8
 610 008a 8DF82A70 		strb	r7, [sp, #42]
  99:Core/Src/peripherals.c ****     config.cfg.acc.range = BMI2_ACC_RANGE_4G;
 611              		.loc 1 99 5 is_stmt 1 view .LVU138
 612              		.loc 1 99 26 is_stmt 0 view .LVU139
 613 008e 0125     		movs	r5, #1
 614 0090 8DF82D50 		strb	r5, [sp, #45]
 100:Core/Src/peripherals.c ****     config.cfg.acc.bwp = BMI2_ACC_NORMAL_AVG4;
 615              		.loc 1 100 5 is_stmt 1 view .LVU140
 616              		.loc 1 100 24 is_stmt 0 view .LVU141
 617 0094 4FF00208 		mov	r8, #2
 618 0098 8DF82B80 		strb	r8, [sp, #43]
 101:Core/Src/peripherals.c **** 
 102:Core/Src/peripherals.c ****     bmi2_set_sensor_config(&config, 1, &bmi270);
 619              		.loc 1 102 5 is_stmt 1 view .LVU142
 620 009c 2246     		mov	r2, r4
ARM GAS  /var/folders/gv/t2w3mcd17yl2fynvjl120d0m0000gn/T//ccUzLJxe.s 			page 17


 621 009e 2946     		mov	r1, r5
 622 00a0 3046     		mov	r0, r6
 623 00a2 FFF7FEFF 		bl	bmi2_set_sensor_config
 624              	.LVL51:
 103:Core/Src/peripherals.c **** 
 104:Core/Src/peripherals.c ****     config.type = BMI2_GYRO;
 625              		.loc 1 104 5 view .LVU143
 626              		.loc 1 104 17 is_stmt 0 view .LVU144
 627 00a6 8DF82850 		strb	r5, [sp, #40]
 105:Core/Src/peripherals.c ****     bmi2_get_sensor_config(&config, 1, &bmi270);
 628              		.loc 1 105 5 is_stmt 1 view .LVU145
 629 00aa 2246     		mov	r2, r4
 630 00ac 2946     		mov	r1, r5
 631 00ae 3046     		mov	r0, r6
 632 00b0 FFF7FEFF 		bl	bmi2_get_sensor_config
 633              	.LVL52:
 106:Core/Src/peripherals.c **** 
 107:Core/Src/peripherals.c ****     config.cfg.gyr.odr = BMI2_GYR_ODR_100HZ;
 634              		.loc 1 107 5 view .LVU146
 635              		.loc 1 107 24 is_stmt 0 view .LVU147
 636 00b4 8DF82A70 		strb	r7, [sp, #42]
 108:Core/Src/peripherals.c ****     config.cfg.gyr.range = BMI2_GYR_RANGE_250;
 637              		.loc 1 108 5 is_stmt 1 view .LVU148
 638              		.loc 1 108 26 is_stmt 0 view .LVU149
 639 00b8 0323     		movs	r3, #3
 640 00ba 8DF82E30 		strb	r3, [sp, #46]
 109:Core/Src/peripherals.c ****     config.cfg.gyr.bwp = BMI2_GYR_NORMAL_MODE;
 641              		.loc 1 109 5 is_stmt 1 view .LVU150
 642              		.loc 1 109 24 is_stmt 0 view .LVU151
 643 00be 8DF82B80 		strb	r8, [sp, #43]
 110:Core/Src/peripherals.c **** 
 111:Core/Src/peripherals.c ****     bmi2_set_sensor_config(&config, 1, &bmi270);
 644              		.loc 1 111 5 is_stmt 1 view .LVU152
 645 00c2 2246     		mov	r2, r4
 646 00c4 2946     		mov	r1, r5
 647 00c6 3046     		mov	r0, r6
 648 00c8 FFF7FEFF 		bl	bmi2_set_sensor_config
 649              	.LVL53:
 112:Core/Src/peripherals.c **** 
 113:Core/Src/peripherals.c ****     uint8_t sensor_list[2] = { BMI2_ACCEL, BMI2_GYRO };
 650              		.loc 1 113 5 view .LVU153
 651              		.loc 1 113 13 is_stmt 0 view .LVU154
 652 00cc 4FF48073 		mov	r3, #256
 653 00d0 ADF82430 		strh	r3, [sp, #36]	@ movhi
 114:Core/Src/peripherals.c **** 
 115:Core/Src/peripherals.c ****     rslt = bmi2_sensor_enable(sensor_list, 2, &bmi270);
 654              		.loc 1 115 5 is_stmt 1 view .LVU155
 655              		.loc 1 115 12 is_stmt 0 view .LVU156
 656 00d4 2246     		mov	r2, r4
 657 00d6 0221     		movs	r1, #2
 658 00d8 09A8     		add	r0, sp, #36
 659 00da FFF7FEFF 		bl	bmi2_sensor_enable
 660              	.LVL54:
 116:Core/Src/peripherals.c ****     if (rslt != BMI2_OK) {
 661              		.loc 1 116 5 is_stmt 1 view .LVU157
 662              		.loc 1 116 8 is_stmt 0 view .LVU158
 663 00de 0146     		mov	r1, r0
ARM GAS  /var/folders/gv/t2w3mcd17yl2fynvjl120d0m0000gn/T//ccUzLJxe.s 			page 18


 664 00e0 0028     		cmp	r0, #0
 665 00e2 3FD1     		bne	.L51
 117:Core/Src/peripherals.c ****         // communication failed
 118:Core/Src/peripherals.c ****         printf("Failed to enable BMI270: err %i\n",rslt);
 119:Core/Src/peripherals.c ****         return rslt;
 120:Core/Src/peripherals.c ****     } 
 121:Core/Src/peripherals.c **** 
 122:Core/Src/peripherals.c ****     uint16_t fifo_config =
 666              		.loc 1 122 5 is_stmt 1 view .LVU159
 667              	.LVL55:
 123:Core/Src/peripherals.c ****     BMI2_FIFO_ACC_EN |
 124:Core/Src/peripherals.c ****     BMI2_FIFO_GYR_EN |
 125:Core/Src/peripherals.c ****     BMI2_FIFO_HEADER_EN |
 126:Core/Src/peripherals.c ****     BMI2_FIFO_TIME_EN;
 127:Core/Src/peripherals.c **** 
 128:Core/Src/peripherals.c ****     rslt = bmi2_set_fifo_config(fifo_config, BMI2_ENABLE, &bmi270);
 668              		.loc 1 128 5 view .LVU160
 669              		.loc 1 128 12 is_stmt 0 view .LVU161
 670 00e4 2C4A     		ldr	r2, .L56
 671 00e6 0121     		movs	r1, #1
 672 00e8 4DF20200 		movw	r0, #53250
 673              	.LVL56:
 674              		.loc 1 128 12 view .LVU162
 675 00ec FFF7FEFF 		bl	bmi2_set_fifo_config
 676              	.LVL57:
 129:Core/Src/peripherals.c ****     if (rslt != BMI2_OK) {
 677              		.loc 1 129 5 is_stmt 1 view .LVU163
 678              		.loc 1 129 8 is_stmt 0 view .LVU164
 679 00f0 0146     		mov	r1, r0
 680 00f2 0028     		cmp	r0, #0
 681 00f4 3BD1     		bne	.L52
 130:Core/Src/peripherals.c ****         // communication failed
 131:Core/Src/peripherals.c ****         printf("BMI270: Failed to set FIFO config: err %i\n",rslt);
 132:Core/Src/peripherals.c ****         return rslt;
 133:Core/Src/peripherals.c ****     } 
 134:Core/Src/peripherals.c **** 
 135:Core/Src/peripherals.c ****     rslt = bmi2_set_fifo_wm(FIFO_WM_THRESH, &bmi270);
 682              		.loc 1 135 5 is_stmt 1 view .LVU165
 683              		.loc 1 135 12 is_stmt 0 view .LVU166
 684 00f6 2849     		ldr	r1, .L56
 685 00f8 4FF48070 		mov	r0, #256
 686              	.LVL58:
 687              		.loc 1 135 12 view .LVU167
 688 00fc FFF7FEFF 		bl	bmi2_set_fifo_wm
 689              	.LVL59:
 136:Core/Src/peripherals.c ****     if (rslt != BMI2_OK) {
 690              		.loc 1 136 5 is_stmt 1 view .LVU168
 691              		.loc 1 136 8 is_stmt 0 view .LVU169
 692 0100 0146     		mov	r1, r0
 693 0102 0028     		cmp	r0, #0
 694 0104 38D1     		bne	.L53
 137:Core/Src/peripherals.c ****         // communication failed
 138:Core/Src/peripherals.c ****         printf("BMI270: Failed to enable FIFO watermark: err %i\n",rslt);
 139:Core/Src/peripherals.c ****         return rslt;
 140:Core/Src/peripherals.c ****     }
 141:Core/Src/peripherals.c **** 
 142:Core/Src/peripherals.c ****     struct bmi2_int_pin_config int_cfg;
ARM GAS  /var/folders/gv/t2w3mcd17yl2fynvjl120d0m0000gn/T//ccUzLJxe.s 			page 19


 695              		.loc 1 142 5 is_stmt 1 view .LVU170
 143:Core/Src/peripherals.c ****     struct bmi2_int_pin_cfg pin_cfg;
 696              		.loc 1 143 5 view .LVU171
 144:Core/Src/peripherals.c **** 
 145:Core/Src/peripherals.c ****     int_cfg.pin_type = BMI2_INT1;
 697              		.loc 1 145 5 view .LVU172
 698              		.loc 1 145 22 is_stmt 0 view .LVU173
 699 0106 0123     		movs	r3, #1
 700 0108 8DF81830 		strb	r3, [sp, #24]
 146:Core/Src/peripherals.c **** 
 147:Core/Src/peripherals.c ****     pin_cfg.output_en = BMI2_ENABLE;
 701              		.loc 1 147 5 is_stmt 1 view .LVU174
 702              		.loc 1 147 23 is_stmt 0 view .LVU175
 703 010c 8DF81630 		strb	r3, [sp, #22]
 148:Core/Src/peripherals.c ****     pin_cfg.od        = BMI2_INT_PUSH_PULL;
 704              		.loc 1 148 5 is_stmt 1 view .LVU176
 705              		.loc 1 148 23 is_stmt 0 view .LVU177
 706 0110 8DF81500 		strb	r0, [sp, #21]
 149:Core/Src/peripherals.c ****     pin_cfg.lvl       = BMI2_INT_ACTIVE_HIGH;
 707              		.loc 1 149 5 is_stmt 1 view .LVU178
 708              		.loc 1 149 23 is_stmt 0 view .LVU179
 709 0114 8DF81430 		strb	r3, [sp, #20]
 150:Core/Src/peripherals.c ****     pin_cfg.input_en  = BMI2_DISABLE;
 710              		.loc 1 150 5 is_stmt 1 view .LVU180
 711              		.loc 1 150 23 is_stmt 0 view .LVU181
 712 0118 8DF81700 		strb	r0, [sp, #23]
 151:Core/Src/peripherals.c ****     int_cfg.pin_cfg[0] = pin_cfg;
 713              		.loc 1 151 5 is_stmt 1 view .LVU182
 714              		.loc 1 151 24 is_stmt 0 view .LVU183
 715 011c 0598     		ldr	r0, [sp, #20]
 716              	.LVL60:
 717              		.loc 1 151 24 view .LVU184
 718 011e CDF81A00 		str	r0, [sp, #26]	@ unaligned
 152:Core/Src/peripherals.c **** 
 153:Core/Src/peripherals.c ****     rslt = bmi2_set_int_pin_config(&int_cfg, &bmi270);
 719              		.loc 1 153 5 is_stmt 1 view .LVU185
 720              		.loc 1 153 12 is_stmt 0 view .LVU186
 721 0122 1D49     		ldr	r1, .L56
 722 0124 06A8     		add	r0, sp, #24
 723 0126 FFF7FEFF 		bl	bmi2_set_int_pin_config
 724              	.LVL61:
 154:Core/Src/peripherals.c ****     if (rslt != BMI2_OK) {
 725              		.loc 1 154 5 is_stmt 1 view .LVU187
 726              		.loc 1 154 8 is_stmt 0 view .LVU188
 727 012a 0146     		mov	r1, r0
 728 012c 48BB     		cbnz	r0, .L54
 155:Core/Src/peripherals.c ****         // communication failed
 156:Core/Src/peripherals.c ****         printf("BMI270: Failed to enable INT1: err %i\n",rslt);
 157:Core/Src/peripherals.c ****         return rslt;
 158:Core/Src/peripherals.c ****     }
 159:Core/Src/peripherals.c **** 
 160:Core/Src/peripherals.c ****     rslt = bmi2_map_data_int(BMI2_FWM_INT, BMI2_INT1, &bmi270);
 729              		.loc 1 160 5 is_stmt 1 view .LVU189
 730              		.loc 1 160 12 is_stmt 0 view .LVU190
 731 012e 1A4A     		ldr	r2, .L56
 732 0130 0121     		movs	r1, #1
 733 0132 0220     		movs	r0, #2
ARM GAS  /var/folders/gv/t2w3mcd17yl2fynvjl120d0m0000gn/T//ccUzLJxe.s 			page 20


 734              	.LVL62:
 735              		.loc 1 160 12 view .LVU191
 736 0134 FFF7FEFF 		bl	bmi2_map_data_int
 737              	.LVL63:
 161:Core/Src/peripherals.c ****     if (rslt != BMI2_OK) {
 738              		.loc 1 161 5 is_stmt 1 view .LVU192
 739              		.loc 1 161 8 is_stmt 0 view .LVU193
 740 0138 0446     		mov	r4, r0
 741 013a 38BB     		cbnz	r0, .L55
 162:Core/Src/peripherals.c ****         // communication failed
 163:Core/Src/peripherals.c ****         printf("BMI270: Failed to enable WM interrupts: err %i\n",rslt);
 164:Core/Src/peripherals.c ****         return rslt;
 165:Core/Src/peripherals.c ****     } 
 166:Core/Src/peripherals.c **** 
 167:Core/Src/peripherals.c ****     printf("BMI270 Initialization successful!\n");
 742              		.loc 1 167 5 is_stmt 1 view .LVU194
 743 013c 1E48     		ldr	r0, .L56+32
 744              	.LVL64:
 745              		.loc 1 167 5 is_stmt 0 view .LVU195
 746 013e FFF7FEFF 		bl	puts
 747              	.LVL65:
 168:Core/Src/peripherals.c ****     return rslt;
 748              		.loc 1 168 5 is_stmt 1 view .LVU196
 749              		.loc 1 168 12 is_stmt 0 view .LVU197
 750 0142 2546     		mov	r5, r4
 751 0144 04E0     		b	.L39
 752              	.LVL66:
 753              	.L49:
 754              		.loc 1 168 12 view .LVU198
 755 0146 0146     		mov	r1, r0
  83:Core/Src/peripherals.c ****         return rslt;
 756              		.loc 1 83 9 is_stmt 1 view .LVU199
 757 0148 0546     		mov	r5, r0
 758 014a 1C48     		ldr	r0, .L56+36
 759              	.LVL67:
  83:Core/Src/peripherals.c ****         return rslt;
 760              		.loc 1 83 9 is_stmt 0 view .LVU200
 761 014c FFF7FEFF 		bl	printf
 762              	.LVL68:
  84:Core/Src/peripherals.c ****     }
 763              		.loc 1 84 9 is_stmt 1 view .LVU201
 764              	.L39:
 169:Core/Src/peripherals.c **** }
 765              		.loc 1 169 1 is_stmt 0 view .LVU202
 766 0150 2846     		mov	r0, r5
 767 0152 18B0     		add	sp, sp, #96
 768              	.LCFI15:
 769              		.cfi_remember_state
 770              		.cfi_def_cfa_offset 24
 771              		@ sp needed
 772 0154 BDE8F081 		pop	{r4, r5, r6, r7, r8, pc}
 773              	.LVL69:
 774              	.L50:
 775              	.LCFI16:
 776              		.cfi_restore_state
  91:Core/Src/peripherals.c ****         return rslt;
 777              		.loc 1 91 9 is_stmt 1 view .LVU203
ARM GAS  /var/folders/gv/t2w3mcd17yl2fynvjl120d0m0000gn/T//ccUzLJxe.s 			page 21


 778 0158 2546     		mov	r5, r4
 779 015a 2146     		mov	r1, r4
 780 015c 1848     		ldr	r0, .L56+40
 781 015e FFF7FEFF 		bl	printf
 782              	.LVL70:
  92:Core/Src/peripherals.c ****     } 
 783              		.loc 1 92 9 view .LVU204
  92:Core/Src/peripherals.c ****     } 
 784              		.loc 1 92 16 is_stmt 0 view .LVU205
 785 0162 F5E7     		b	.L39
 786              	.LVL71:
 787              	.L51:
 118:Core/Src/peripherals.c ****         return rslt;
 788              		.loc 1 118 9 is_stmt 1 view .LVU206
 789 0164 0546     		mov	r5, r0
 790 0166 1748     		ldr	r0, .L56+44
 791              	.LVL72:
 118:Core/Src/peripherals.c ****         return rslt;
 792              		.loc 1 118 9 is_stmt 0 view .LVU207
 793 0168 FFF7FEFF 		bl	printf
 794              	.LVL73:
 119:Core/Src/peripherals.c ****     } 
 795              		.loc 1 119 9 is_stmt 1 view .LVU208
 119:Core/Src/peripherals.c ****     } 
 796              		.loc 1 119 16 is_stmt 0 view .LVU209
 797 016c F0E7     		b	.L39
 798              	.LVL74:
 799              	.L52:
 131:Core/Src/peripherals.c ****         return rslt;
 800              		.loc 1 131 9 is_stmt 1 view .LVU210
 801 016e 0546     		mov	r5, r0
 802 0170 1548     		ldr	r0, .L56+48
 803              	.LVL75:
 131:Core/Src/peripherals.c ****         return rslt;
 804              		.loc 1 131 9 is_stmt 0 view .LVU211
 805 0172 FFF7FEFF 		bl	printf
 806              	.LVL76:
 132:Core/Src/peripherals.c ****     } 
 807              		.loc 1 132 9 is_stmt 1 view .LVU212
 132:Core/Src/peripherals.c ****     } 
 808              		.loc 1 132 16 is_stmt 0 view .LVU213
 809 0176 EBE7     		b	.L39
 810              	.LVL77:
 811              	.L53:
 138:Core/Src/peripherals.c ****         return rslt;
 812              		.loc 1 138 9 is_stmt 1 view .LVU214
 813 0178 0546     		mov	r5, r0
 814 017a 1448     		ldr	r0, .L56+52
 815              	.LVL78:
 138:Core/Src/peripherals.c ****         return rslt;
 816              		.loc 1 138 9 is_stmt 0 view .LVU215
 817 017c FFF7FEFF 		bl	printf
 818              	.LVL79:
 139:Core/Src/peripherals.c ****     }
 819              		.loc 1 139 9 is_stmt 1 view .LVU216
 139:Core/Src/peripherals.c ****     }
 820              		.loc 1 139 16 is_stmt 0 view .LVU217
ARM GAS  /var/folders/gv/t2w3mcd17yl2fynvjl120d0m0000gn/T//ccUzLJxe.s 			page 22


 821 0180 E6E7     		b	.L39
 822              	.LVL80:
 823              	.L54:
 156:Core/Src/peripherals.c ****         return rslt;
 824              		.loc 1 156 9 is_stmt 1 view .LVU218
 825 0182 0546     		mov	r5, r0
 826 0184 1248     		ldr	r0, .L56+56
 827              	.LVL81:
 156:Core/Src/peripherals.c ****         return rslt;
 828              		.loc 1 156 9 is_stmt 0 view .LVU219
 829 0186 FFF7FEFF 		bl	printf
 830              	.LVL82:
 157:Core/Src/peripherals.c ****     }
 831              		.loc 1 157 9 is_stmt 1 view .LVU220
 157:Core/Src/peripherals.c ****     }
 832              		.loc 1 157 16 is_stmt 0 view .LVU221
 833 018a E1E7     		b	.L39
 834              	.LVL83:
 835              	.L55:
 163:Core/Src/peripherals.c ****         return rslt;
 836              		.loc 1 163 9 is_stmt 1 view .LVU222
 837 018c 0546     		mov	r5, r0
 838 018e 0146     		mov	r1, r0
 839 0190 1048     		ldr	r0, .L56+60
 840              	.LVL84:
 163:Core/Src/peripherals.c ****         return rslt;
 841              		.loc 1 163 9 is_stmt 0 view .LVU223
 842 0192 FFF7FEFF 		bl	printf
 843              	.LVL85:
 164:Core/Src/peripherals.c ****     } 
 844              		.loc 1 164 9 is_stmt 1 view .LVU224
 164:Core/Src/peripherals.c ****     } 
 845              		.loc 1 164 16 is_stmt 0 view .LVU225
 846 0196 DBE7     		b	.L39
 847              	.L57:
 848              		.align	2
 849              	.L56:
 850 0198 00000000 		.word	bmi270
 851 019c 00000000 		.word	bmi270_read
 852 01a0 00000000 		.word	bmi270_write
 853 01a4 00000000 		.word	delay_us
 854 01a8 00000000 		.word	bmi270_config_file
 855 01ac 00000000 		.word	.LC0
 856 01b0 00000000 		.word	hi2c2
 857 01b4 20000000 		.word	.LC1
 858 01b8 74010000 		.word	.LC9
 859 01bc 48000000 		.word	.LC2
 860 01c0 70000000 		.word	.LC3
 861 01c4 98000000 		.word	.LC4
 862 01c8 BC000000 		.word	.LC5
 863 01cc E8000000 		.word	.LC6
 864 01d0 1C010000 		.word	.LC7
 865 01d4 44010000 		.word	.LC8
 866              		.cfi_endproc
 867              	.LFE239:
 869              		.section	.text.initTMP,"ax",%progbits
 870              		.align	1
ARM GAS  /var/folders/gv/t2w3mcd17yl2fynvjl120d0m0000gn/T//ccUzLJxe.s 			page 23


 871              		.global	initTMP
 872              		.syntax unified
 873              		.thumb
 874              		.thumb_func
 876              	initTMP:
 877              	.LFB240:
 170:Core/Src/peripherals.c **** 
 171:Core/Src/peripherals.c **** void initTMP() {
 878              		.loc 1 171 16 is_stmt 1 view -0
 879              		.cfi_startproc
 880              		@ args = 0, pretend = 0, frame = 0
 881              		@ frame_needed = 0, uses_anonymous_args = 0
 882 0000 08B5     		push	{r3, lr}
 883              	.LCFI17:
 884              		.cfi_def_cfa_offset 8
 885              		.cfi_offset 3, -8
 886              		.cfi_offset 14, -4
 172:Core/Src/peripherals.c **** 	uint8_t addr = 0x60;
 887              		.loc 1 172 2 view .LVU227
 888              	.LVL86:
 173:Core/Src/peripherals.c **** 	uint8_t out_bytes[5];
 889              		.loc 1 173 2 view .LVU228
 174:Core/Src/peripherals.c **** 	uint8_t CTRL_REG1 = 0x26;
 890              		.loc 1 174 2 view .LVU229
 175:Core/Src/peripherals.c **** 	uint8_t PT_DATA_CFG = 0x13;
 891              		.loc 1 175 2 view .LVU230
 176:Core/Src/peripherals.c **** 	uint8_t STATUS = 0x00;
 892              		.loc 1 176 2 view .LVU231
 177:Core/Src/peripherals.c **** 
 178:Core/Src/peripherals.c **** 	//enable data flags
 179:Core/Src/peripherals.c **** 	Write_I2C_Reg(addr,PT_DATA_CFG,0x7,2);
 893              		.loc 1 179 2 view .LVU232
 894 0002 0223     		movs	r3, #2
 895 0004 0722     		movs	r2, #7
 896 0006 1321     		movs	r1, #19
 897 0008 6020     		movs	r0, #96
 898 000a FFF7FEFF 		bl	Write_I2C_Reg
 899              	.LVL87:
 180:Core/Src/peripherals.c **** 	//0x3A to CTRL_REG1 to activate one reading
 181:Core/Src/peripherals.c **** 	Write_I2C_Reg(addr,CTRL_REG1,0x39,2);
 900              		.loc 1 181 2 view .LVU233
 901 000e 0223     		movs	r3, #2
 902 0010 3922     		movs	r2, #57
 903 0012 2621     		movs	r1, #38
 904 0014 6020     		movs	r0, #96
 905 0016 FFF7FEFF 		bl	Write_I2C_Reg
 906              	.LVL88:
 182:Core/Src/peripherals.c **** }
 907              		.loc 1 182 1 is_stmt 0 view .LVU234
 908 001a 08BD     		pop	{r3, pc}
 909              		.cfi_endproc
 910              	.LFE240:
 912              		.section	.rodata.readTMP.str1.4,"aMS",%progbits,1
 913              		.align	2
 914              	.LC10:
 915 0000 4661696C 		.ascii	"Failed to write tmp sensor data: err %i\012\000"
 915      65642074 
ARM GAS  /var/folders/gv/t2w3mcd17yl2fynvjl120d0m0000gn/T//ccUzLJxe.s 			page 24


 915      6F207772 
 915      69746520 
 915      746D7020 
 916              		.section	.text.readTMP,"ax",%progbits
 917              		.align	1
 918              		.global	readTMP
 919              		.syntax unified
 920              		.thumb
 921              		.thumb_func
 923              	readTMP:
 924              	.LFB241:
 183:Core/Src/peripherals.c **** 
 184:Core/Src/peripherals.c **** //non-blocking tmp/prs sensor read
 185:Core/Src/peripherals.c **** void readTMP() {
 925              		.loc 1 185 16 is_stmt 1 view -0
 926              		.cfi_startproc
 927              		@ args = 0, pretend = 0, frame = 32
 928              		@ frame_needed = 0, uses_anonymous_args = 0
 929 0000 10B5     		push	{r4, lr}
 930              	.LCFI18:
 931              		.cfi_def_cfa_offset 8
 932              		.cfi_offset 4, -8
 933              		.cfi_offset 14, -4
 934 0002 8AB0     		sub	sp, sp, #40
 935              	.LCFI19:
 936              		.cfi_def_cfa_offset 48
 186:Core/Src/peripherals.c **** 	uint8_t addr = 0x60;
 937              		.loc 1 186 2 view .LVU236
 938              	.LVL89:
 187:Core/Src/peripherals.c **** 	uint8_t out_bytes[5];
 939              		.loc 1 187 2 view .LVU237
 188:Core/Src/peripherals.c **** 	uint8_t CTRL_REG1 = 0x26;
 940              		.loc 1 188 2 view .LVU238
 189:Core/Src/peripherals.c **** 	uint8_t PT_DATA_CFG = 0x13;
 941              		.loc 1 189 2 view .LVU239
 190:Core/Src/peripherals.c **** 	uint8_t STATUS = 0x00;
 942              		.loc 1 190 2 view .LVU240
 191:Core/Src/peripherals.c **** 	//log_printf("Status: %02x\r\n",Read_I2C_Reg_NoStop(addr,CTRL_REG1));
 192:Core/Src/peripherals.c ****     // if data not ready, return immediately
 193:Core/Src/peripherals.c **** 	if ((Read_I2C_Reg(addr,STATUS,2) & 0x0e) != 0x0e) {
 943              		.loc 1 193 2 view .LVU241
 944              		.loc 1 193 7 is_stmt 0 view .LVU242
 945 0004 0222     		movs	r2, #2
 946 0006 0021     		movs	r1, #0
 947 0008 6020     		movs	r0, #96
 948 000a FFF7FEFF 		bl	Read_I2C_Reg
 949              	.LVL90:
 950              		.loc 1 193 5 discriminator 1 view .LVU243
 951 000e 00F00E00 		and	r0, r0, #14
 952 0012 0E28     		cmp	r0, #14
 953 0014 32D0     		beq	.L65
 954              	.L60:
 194:Core/Src/peripherals.c **** 		return;
 195:Core/Src/peripherals.c **** 	}
 196:Core/Src/peripherals.c **** 	// read data
 197:Core/Src/peripherals.c **** 	for (int i = 0; i < 5; i++) {
 198:Core/Src/peripherals.c **** 		out_bytes[i] = Read_I2C_Reg_NoStop(addr, i+1,2);
ARM GAS  /var/folders/gv/t2w3mcd17yl2fynvjl120d0m0000gn/T//ccUzLJxe.s 			page 25


 199:Core/Src/peripherals.c **** 	}
 200:Core/Src/peripherals.c ****     packet tmp_data = {0};
 201:Core/Src/peripherals.c **** 
 202:Core/Src/peripherals.c ****     tmp_data.type = PACKET_TMP;
 203:Core/Src/peripherals.c ****     tmp_data.timestamp = HAL_GetTick() - startTime;
 204:Core/Src/peripherals.c ****     tmp_data.rtcTimestamp = rtcElapsed();
 205:Core/Src/peripherals.c ****     tmp_data.len = 5;
 206:Core/Src/peripherals.c ****     tmp_data.payload = out_bytes;
 207:Core/Src/peripherals.c ****     int res = writePacket(tmp_data);
 208:Core/Src/peripherals.c **** 	if (res != FR_OK) {
 209:Core/Src/peripherals.c ****         printf("Failed to write tmp sensor data: err %i\n", res);
 210:Core/Src/peripherals.c ****     }
 211:Core/Src/peripherals.c **** }
 955              		.loc 1 211 1 view .LVU244
 956 0016 0AB0     		add	sp, sp, #40
 957              	.LCFI20:
 958              		.cfi_remember_state
 959              		.cfi_def_cfa_offset 8
 960              		@ sp needed
 961 0018 10BD     		pop	{r4, pc}
 962              	.LVL91:
 963              	.L63:
 964              	.LCFI21:
 965              		.cfi_restore_state
 966              	.LBB21:
 198:Core/Src/peripherals.c **** 	}
 967              		.loc 1 198 3 is_stmt 1 view .LVU245
 198:Core/Src/peripherals.c **** 	}
 968              		.loc 1 198 18 is_stmt 0 view .LVU246
 969 001a 611C     		adds	r1, r4, #1
 970 001c 0222     		movs	r2, #2
 971 001e C9B2     		uxtb	r1, r1
 972 0020 6020     		movs	r0, #96
 973 0022 FFF7FEFF 		bl	Read_I2C_Reg_NoStop
 974              	.LVL92:
 198:Core/Src/peripherals.c **** 	}
 975              		.loc 1 198 16 discriminator 1 view .LVU247
 976 0026 04F12803 		add	r3, r4, #40
 977 002a 6B44     		add	r3, sp, r3
 978 002c 03F8080C 		strb	r0, [r3, #-8]
 197:Core/Src/peripherals.c **** 		out_bytes[i] = Read_I2C_Reg_NoStop(addr, i+1,2);
 979              		.loc 1 197 26 is_stmt 1 discriminator 3 view .LVU248
 980 0030 0134     		adds	r4, r4, #1
 981              	.LVL93:
 982              	.L61:
 197:Core/Src/peripherals.c **** 		out_bytes[i] = Read_I2C_Reg_NoStop(addr, i+1,2);
 983              		.loc 1 197 20 discriminator 1 view .LVU249
 984 0032 042C     		cmp	r4, #4
 985 0034 F1DD     		ble	.L63
 986              	.LBE21:
 200:Core/Src/peripherals.c **** 
 987              		.loc 1 200 5 view .LVU250
 200:Core/Src/peripherals.c **** 
 988              		.loc 1 200 12 is_stmt 0 view .LVU251
 989 0036 03AC     		add	r4, sp, #12
 990              	.LVL94:
 200:Core/Src/peripherals.c **** 
ARM GAS  /var/folders/gv/t2w3mcd17yl2fynvjl120d0m0000gn/T//ccUzLJxe.s 			page 26


 991              		.loc 1 200 12 view .LVU252
 992 0038 0023     		movs	r3, #0
 993 003a 0393     		str	r3, [sp, #12]
 994 003c 0493     		str	r3, [sp, #16]
 995 003e 0593     		str	r3, [sp, #20]
 996 0040 0693     		str	r3, [sp, #24]
 997 0042 0793     		str	r3, [sp, #28]
 202:Core/Src/peripherals.c ****     tmp_data.timestamp = HAL_GetTick() - startTime;
 998              		.loc 1 202 5 is_stmt 1 view .LVU253
 202:Core/Src/peripherals.c ****     tmp_data.timestamp = HAL_GetTick() - startTime;
 999              		.loc 1 202 19 is_stmt 0 view .LVU254
 1000 0044 0123     		movs	r3, #1
 1001 0046 8DF80C30 		strb	r3, [sp, #12]
 203:Core/Src/peripherals.c ****     tmp_data.rtcTimestamp = rtcElapsed();
 1002              		.loc 1 203 5 is_stmt 1 view .LVU255
 203:Core/Src/peripherals.c ****     tmp_data.rtcTimestamp = rtcElapsed();
 1003              		.loc 1 203 26 is_stmt 0 view .LVU256
 1004 004a FFF7FEFF 		bl	HAL_GetTick
 1005              	.LVL95:
 203:Core/Src/peripherals.c ****     tmp_data.rtcTimestamp = rtcElapsed();
 1006              		.loc 1 203 40 discriminator 1 view .LVU257
 1007 004e 0C4B     		ldr	r3, .L67
 1008 0050 1B68     		ldr	r3, [r3]
 1009 0052 C01A     		subs	r0, r0, r3
 203:Core/Src/peripherals.c ****     tmp_data.rtcTimestamp = rtcElapsed();
 1010              		.loc 1 203 24 discriminator 1 view .LVU258
 1011 0054 0490     		str	r0, [sp, #16]
 204:Core/Src/peripherals.c ****     tmp_data.len = 5;
 1012              		.loc 1 204 5 is_stmt 1 view .LVU259
 204:Core/Src/peripherals.c ****     tmp_data.len = 5;
 1013              		.loc 1 204 29 is_stmt 0 view .LVU260
 1014 0056 FFF7FEFF 		bl	rtcElapsed
 1015              	.LVL96:
 204:Core/Src/peripherals.c ****     tmp_data.len = 5;
 1016              		.loc 1 204 27 discriminator 1 view .LVU261
 1017 005a 0590     		str	r0, [sp, #20]
 205:Core/Src/peripherals.c ****     tmp_data.payload = out_bytes;
 1018              		.loc 1 205 5 is_stmt 1 view .LVU262
 205:Core/Src/peripherals.c ****     tmp_data.payload = out_bytes;
 1019              		.loc 1 205 18 is_stmt 0 view .LVU263
 1020 005c 0523     		movs	r3, #5
 1021 005e 0693     		str	r3, [sp, #24]
 206:Core/Src/peripherals.c ****     int res = writePacket(tmp_data);
 1022              		.loc 1 206 5 is_stmt 1 view .LVU264
 206:Core/Src/peripherals.c ****     int res = writePacket(tmp_data);
 1023              		.loc 1 206 22 is_stmt 0 view .LVU265
 1024 0060 08AB     		add	r3, sp, #32
 1025 0062 0793     		str	r3, [sp, #28]
 207:Core/Src/peripherals.c **** 	if (res != FR_OK) {
 1026              		.loc 1 207 5 is_stmt 1 view .LVU266
 207:Core/Src/peripherals.c **** 	if (res != FR_OK) {
 1027              		.loc 1 207 15 is_stmt 0 view .LVU267
 1028 0064 0093     		str	r3, [sp]
 1029 0066 94E80F00 		ldm	r4, {r0, r1, r2, r3}
 1030 006a FFF7FEFF 		bl	writePacket
 1031              	.LVL97:
 208:Core/Src/peripherals.c ****         printf("Failed to write tmp sensor data: err %i\n", res);
ARM GAS  /var/folders/gv/t2w3mcd17yl2fynvjl120d0m0000gn/T//ccUzLJxe.s 			page 27


 1032              		.loc 1 208 2 is_stmt 1 view .LVU268
 208:Core/Src/peripherals.c ****         printf("Failed to write tmp sensor data: err %i\n", res);
 1033              		.loc 1 208 5 is_stmt 0 view .LVU269
 1034 006e 0146     		mov	r1, r0
 1035 0070 0028     		cmp	r0, #0
 1036 0072 D0D0     		beq	.L60
 209:Core/Src/peripherals.c ****     }
 1037              		.loc 1 209 9 is_stmt 1 view .LVU270
 1038 0074 0348     		ldr	r0, .L67+4
 1039              	.LVL98:
 209:Core/Src/peripherals.c ****     }
 1040              		.loc 1 209 9 is_stmt 0 view .LVU271
 1041 0076 FFF7FEFF 		bl	printf
 1042              	.LVL99:
 209:Core/Src/peripherals.c ****     }
 1043              		.loc 1 209 9 view .LVU272
 1044 007a CCE7     		b	.L60
 1045              	.LVL100:
 1046              	.L65:
 1047              	.LBB22:
 197:Core/Src/peripherals.c **** 		out_bytes[i] = Read_I2C_Reg_NoStop(addr, i+1,2);
 1048              		.loc 1 197 11 view .LVU273
 1049 007c 0024     		movs	r4, #0
 1050 007e D8E7     		b	.L61
 1051              	.L68:
 1052              		.align	2
 1053              	.L67:
 1054 0080 00000000 		.word	startTime
 1055 0084 00000000 		.word	.LC10
 1056              	.LBE22:
 1057              		.cfi_endproc
 1058              	.LFE241:
 1060              		.section	.rodata.readBMI270.str1.4,"aMS",%progbits,1
 1061              		.align	2
 1062              	.LC11:
 1063 0000 4661696C 		.ascii	"Failed to read FIFO Frame: err %i\012\000"
 1063      65642074 
 1063      6F207265 
 1063      61642046 
 1063      49464F20 
 1064 0023 00       		.align	2
 1065              	.LC12:
 1066 0024 4661696C 		.ascii	"Failed to extract acceleration frame: err %i\012\000"
 1066      65642074 
 1066      6F206578 
 1066      74726163 
 1066      74206163 
 1067 0052 0000     		.align	2
 1068              	.LC13:
 1069 0054 4661696C 		.ascii	"Failed to extract gyroscope frame: err %i\012\000"
 1069      65642074 
 1069      6F206578 
 1069      74726163 
 1069      74206779 
 1070              		.section	.text.readBMI270,"ax",%progbits
 1071              		.align	1
 1072              		.global	readBMI270
ARM GAS  /var/folders/gv/t2w3mcd17yl2fynvjl120d0m0000gn/T//ccUzLJxe.s 			page 28


 1073              		.syntax unified
 1074              		.thumb
 1075              		.thumb_func
 1077              	readBMI270:
 1078              	.LFB242:
 212:Core/Src/peripherals.c **** 
 213:Core/Src/peripherals.c **** void readBMI270() {
 1079              		.loc 1 213 19 is_stmt 1 view -0
 1080              		.cfi_startproc
 1081              		@ args = 0, pretend = 0, frame = 3104
 1082              		@ frame_needed = 0, uses_anonymous_args = 0
 1083 0000 30B5     		push	{r4, r5, lr}
 1084              	.LCFI22:
 1085              		.cfi_def_cfa_offset 12
 1086              		.cfi_offset 4, -12
 1087              		.cfi_offset 5, -8
 1088              		.cfi_offset 14, -4
 1089 0002 ADF62C4D 		subw	sp, sp, #3116
 1090              	.LCFI23:
 1091              		.cfi_def_cfa_offset 3128
 214:Core/Src/peripherals.c ****     uint16_t int_status;
 1092              		.loc 1 214 5 view .LVU275
 215:Core/Src/peripherals.c ****     bmi2_get_int_status(&int_status, &bmi270);
 1093              		.loc 1 215 5 view .LVU276
 1094 0006 524C     		ldr	r4, .L82
 1095 0008 2146     		mov	r1, r4
 1096 000a 0DF62640 		addw	r0, sp, #3110
 1097 000e FFF7FEFF 		bl	bmi2_get_int_status
 1098              	.LVL101:
 216:Core/Src/peripherals.c ****     //printf("FIFO Status: %i\n",int_status);
 217:Core/Src/peripherals.c **** 
 218:Core/Src/peripherals.c ****     uint16_t fifo_len;
 1099              		.loc 1 218 5 view .LVU277
 219:Core/Src/peripherals.c ****     bmi2_get_fifo_length(&fifo_len, &bmi270);
 1100              		.loc 1 219 5 view .LVU278
 1101 0012 2146     		mov	r1, r4
 1102 0014 0DF62440 		addw	r0, sp, #3108
 1103 0018 FFF7FEFF 		bl	bmi2_get_fifo_length
 1104              	.LVL102:
 220:Core/Src/peripherals.c ****     //printf("fifo length before = %u\n", fifo_len);
 221:Core/Src/peripherals.c **** 
 222:Core/Src/peripherals.c ****     int8_t rslt = bmi2_read_fifo_data(&fifo, &bmi270);
 1105              		.loc 1 222 5 view .LVU279
 1106              		.loc 1 222 19 is_stmt 0 view .LVU280
 1107 001c 2146     		mov	r1, r4
 1108 001e 4D48     		ldr	r0, .L82+4
 1109 0020 FFF7FEFF 		bl	bmi2_read_fifo_data
 1110              	.LVL103:
 223:Core/Src/peripherals.c ****     if (rslt != BMI2_OK) {
 1111              		.loc 1 223 5 is_stmt 1 view .LVU281
 1112              		.loc 1 223 8 is_stmt 0 view .LVU282
 1113 0024 E8B9     		cbnz	r0, .L79
 1114              	.LBB23:
 224:Core/Src/peripherals.c ****         log_printf("Failed to read FIFO Frame: err %i\n",rslt);
 225:Core/Src/peripherals.c ****         return;
 226:Core/Src/peripherals.c ****     } else {
 227:Core/Src/peripherals.c ****         //printf("Successful fifo frame read: %i frames\n",fifo.length);
ARM GAS  /var/folders/gv/t2w3mcd17yl2fynvjl120d0m0000gn/T//ccUzLJxe.s 			page 29


 228:Core/Src/peripherals.c ****         bmi2_get_fifo_length(&fifo_len, &bmi270);
 1115              		.loc 1 228 9 is_stmt 1 view .LVU283
 1116 0026 4A4C     		ldr	r4, .L82
 1117 0028 2146     		mov	r1, r4
 1118 002a 0DF62440 		addw	r0, sp, #3108
 1119              	.LVL104:
 1120              		.loc 1 228 9 is_stmt 0 view .LVU284
 1121 002e FFF7FEFF 		bl	bmi2_get_fifo_length
 1122              	.LVL105:
 229:Core/Src/peripherals.c ****         //printf("fifo length after = %u\n", fifo_len);
 230:Core/Src/peripherals.c **** 
 231:Core/Src/peripherals.c ****         struct bmi2_sens_axes_data accel_data[128];
 1123              		.loc 1 231 9 is_stmt 1 view .LVU285
 232:Core/Src/peripherals.c ****         struct bmi2_sens_axes_data gyro_data[128];
 1124              		.loc 1 232 9 view .LVU286
 233:Core/Src/peripherals.c **** 
 234:Core/Src/peripherals.c ****         uint16_t acc_frames = MAX_FIFO_FRAMES;
 1125              		.loc 1 234 9 view .LVU287
 1126              		.loc 1 234 18 is_stmt 0 view .LVU288
 1127 0032 03A9     		add	r1, sp, #12
 1128 0034 8023     		movs	r3, #128
 1129 0036 0B80     		strh	r3, [r1]	@ movhi
 235:Core/Src/peripherals.c ****         uint16_t gyr_frames = MAX_FIFO_FRAMES;
 1130              		.loc 1 235 9 is_stmt 1 view .LVU289
 1131              		.loc 1 235 18 is_stmt 0 view .LVU290
 1132 0038 ADF80E30 		strh	r3, [sp, #14]	@ movhi
 236:Core/Src/peripherals.c **** 
 237:Core/Src/peripherals.c ****         rslt = bmi2_extract_accel(accel_data, &acc_frames, &fifo, &bmi270);
 1133              		.loc 1 237 9 is_stmt 1 view .LVU291
 1134              		.loc 1 237 16 is_stmt 0 view .LVU292
 1135 003c 2346     		mov	r3, r4
 1136 003e 454A     		ldr	r2, .L82+4
 1137 0040 09A8     		add	r0, sp, #36
 1138 0042 FFF7FEFF 		bl	bmi2_extract_accel
 1139              	.LVL106:
 238:Core/Src/peripherals.c ****         if (rslt < BMI2_OK) {
 1140              		.loc 1 238 9 is_stmt 1 view .LVU293
 1141              		.loc 1 238 12 is_stmt 0 view .LVU294
 1142 0046 011E     		subs	r1, r0, #0
 1143 0048 10DB     		blt	.L80
 1144              	.LVL107:
 1145              	.L72:
 239:Core/Src/peripherals.c ****             log_printf("Failed to extract acceleration frame: err %i\n",rslt);
 240:Core/Src/peripherals.c ****         }
 241:Core/Src/peripherals.c ****         rslt = bmi2_extract_gyro(gyro_data, &gyr_frames, &fifo, &bmi270);
 1146              		.loc 1 241 9 is_stmt 1 view .LVU295
 1147              		.loc 1 241 16 is_stmt 0 view .LVU296
 1148 004a 414B     		ldr	r3, .L82
 1149 004c 414A     		ldr	r2, .L82+4
 1150 004e 0DF10E01 		add	r1, sp, #14
 1151 0052 0DF22460 		addw	r0, sp, #1572
 1152 0056 FFF7FEFF 		bl	bmi2_extract_gyro
 1153              	.LVL108:
 242:Core/Src/peripherals.c ****         if (rslt < BMI2_OK) {
 1154              		.loc 1 242 9 is_stmt 1 view .LVU297
 1155              		.loc 1 242 12 is_stmt 0 view .LVU298
 1156 005a 011E     		subs	r1, r0, #0
ARM GAS  /var/folders/gv/t2w3mcd17yl2fynvjl120d0m0000gn/T//ccUzLJxe.s 			page 30


 1157 005c 0ADB     		blt	.L81
 1158              	.LVL109:
 1159              	.L73:
 1160              		.loc 1 242 12 view .LVU299
 1161              	.LBE23:
 213:Core/Src/peripherals.c ****     uint16_t int_status;
 1162              		.loc 1 213 19 view .LVU300
 1163 005e 0021     		movs	r1, #0
 1164 0060 21E0     		b	.L74
 1165              	.LVL110:
 1166              	.L79:
 213:Core/Src/peripherals.c ****     uint16_t int_status;
 1167              		.loc 1 213 19 view .LVU301
 1168 0062 0146     		mov	r1, r0
 224:Core/Src/peripherals.c ****         return;
 1169              		.loc 1 224 9 is_stmt 1 view .LVU302
 1170 0064 3C48     		ldr	r0, .L82+8
 1171              	.LVL111:
 224:Core/Src/peripherals.c ****         return;
 1172              		.loc 1 224 9 is_stmt 0 view .LVU303
 1173 0066 FFF7FEFF 		bl	log_printf
 1174              	.LVL112:
 225:Core/Src/peripherals.c ****     } else {
 1175              		.loc 1 225 9 is_stmt 1 view .LVU304
 1176 006a 6EE0     		b	.L69
 1177              	.LVL113:
 1178              	.L80:
 1179              	.LBB26:
 239:Core/Src/peripherals.c ****         }
 1180              		.loc 1 239 13 view .LVU305
 1181 006c 3B48     		ldr	r0, .L82+12
 1182              	.LVL114:
 239:Core/Src/peripherals.c ****         }
 1183              		.loc 1 239 13 is_stmt 0 view .LVU306
 1184 006e FFF7FEFF 		bl	log_printf
 1185              	.LVL115:
 239:Core/Src/peripherals.c ****         }
 1186              		.loc 1 239 13 view .LVU307
 1187 0072 EAE7     		b	.L72
 1188              	.LVL116:
 1189              	.L81:
 243:Core/Src/peripherals.c ****             log_printf("Failed to extract gyroscope frame: err %i\n",rslt);
 1190              		.loc 1 243 13 is_stmt 1 view .LVU308
 1191 0074 3A48     		ldr	r0, .L82+16
 1192              	.LVL117:
 1193              		.loc 1 243 13 is_stmt 0 view .LVU309
 1194 0076 FFF7FEFF 		bl	log_printf
 1195              	.LVL118:
 1196              		.loc 1 243 13 view .LVU310
 1197 007a F0E7     		b	.L73
 1198              	.LVL119:
 1199              	.L75:
 1200              	.LBB24:
 244:Core/Src/peripherals.c ****         }
 245:Core/Src/peripherals.c ****         //printf("%i, %i frames each - Frame 1: (%i,%i,%i)\n",acc_frames, gyr_frames, gyro_data[0].
 246:Core/Src/peripherals.c ****         for (int frame = 0; frame < acc_frames; frame++) {
 247:Core/Src/peripherals.c ****             bmi2_data[frame * 3] = (int16_t)accel_data[frame].x;
ARM GAS  /var/folders/gv/t2w3mcd17yl2fynvjl120d0m0000gn/T//ccUzLJxe.s 			page 31


 1201              		.loc 1 247 13 is_stmt 1 view .LVU311
 1202              		.loc 1 247 29 is_stmt 0 view .LVU312
 1203 007c 01EB4103 		add	r3, r1, r1, lsl #1
 1204              		.loc 1 247 62 view .LVU313
 1205 0080 09AA     		add	r2, sp, #36
 1206 0082 02EB8300 		add	r0, r2, r3, lsl #2
 1207 0086 32F92340 		ldrsh	r4, [r2, r3, lsl #2]
 1208              		.loc 1 247 34 view .LVU314
 1209 008a 364A     		ldr	r2, .L82+20
 1210 008c 22F81340 		strh	r4, [r2, r3, lsl #1]	@ movhi
 248:Core/Src/peripherals.c ****             bmi2_data[1 + frame * 3] = (int16_t)accel_data[frame].y;
 1211              		.loc 1 248 13 is_stmt 1 view .LVU315
 1212              		.loc 1 248 25 is_stmt 0 view .LVU316
 1213 0090 5C1C     		adds	r4, r3, #1
 1214              		.loc 1 248 66 view .LVU317
 1215 0092 B0F90250 		ldrsh	r5, [r0, #2]
 1216              		.loc 1 248 38 view .LVU318
 1217 0096 22F81450 		strh	r5, [r2, r4, lsl #1]	@ movhi
 249:Core/Src/peripherals.c ****             bmi2_data[2 + frame * 3] = (int16_t)accel_data[frame].z;
 1218              		.loc 1 249 13 is_stmt 1 view .LVU319
 1219              		.loc 1 249 25 is_stmt 0 view .LVU320
 1220 009a 0233     		adds	r3, r3, #2
 1221              		.loc 1 249 66 view .LVU321
 1222 009c B0F90400 		ldrsh	r0, [r0, #4]
 1223              		.loc 1 249 38 view .LVU322
 1224 00a0 22F81300 		strh	r0, [r2, r3, lsl #1]	@ movhi
 246:Core/Src/peripherals.c ****             bmi2_data[frame * 3] = (int16_t)accel_data[frame].x;
 1225              		.loc 1 246 54 is_stmt 1 discriminator 3 view .LVU323
 1226 00a4 0131     		adds	r1, r1, #1
 1227              	.LVL120:
 1228              	.L74:
 246:Core/Src/peripherals.c ****             bmi2_data[frame * 3] = (int16_t)accel_data[frame].x;
 1229              		.loc 1 246 35 discriminator 1 view .LVU324
 1230 00a6 BDF80C20 		ldrh	r2, [sp, #12]
 1231 00aa 8A42     		cmp	r2, r1
 1232 00ac E6DC     		bgt	.L75
 1233              	.LBE24:
 1234              	.LBB25:
 250:Core/Src/peripherals.c ****         }
 251:Core/Src/peripherals.c ****         for (int frame = 0; frame < gyr_frames; frame++) {
 1235              		.loc 1 251 18 is_stmt 0 view .LVU325
 1236 00ae 0023     		movs	r3, #0
 1237 00b0 20E0     		b	.L76
 1238              	.LVL121:
 1239              	.L77:
 252:Core/Src/peripherals.c ****             bmi2_data[acc_frames * 3 + frame * 3] = (int16_t)gyro_data[frame].x;
 1240              		.loc 1 252 13 is_stmt 1 view .LVU326
 1241              		.loc 1 252 38 is_stmt 0 view .LVU327
 1242 00b2 D118     		adds	r1, r2, r3
 1243 00b4 01EB4101 		add	r1, r1, r1, lsl #1
 1244              		.loc 1 252 78 view .LVU328
 1245 00b8 0DF22460 		addw	r0, sp, #1572
 1246 00bc 03EB430C 		add	ip, r3, r3, lsl #1
 1247 00c0 00EB8C04 		add	r4, r0, ip, lsl #2
 1248 00c4 30F92C00 		ldrsh	r0, [r0, ip, lsl #2]
 1249              		.loc 1 252 51 view .LVU329
 1250 00c8 DFF898C0 		ldr	ip, .L82+20
ARM GAS  /var/folders/gv/t2w3mcd17yl2fynvjl120d0m0000gn/T//ccUzLJxe.s 			page 32


 1251 00cc 2CF81100 		strh	r0, [ip, r1, lsl #1]	@ movhi
 253:Core/Src/peripherals.c ****             bmi2_data[1 + acc_frames * 3 + frame * 3] = (int16_t)gyro_data[frame].y;
 1252              		.loc 1 253 13 is_stmt 1 view .LVU330
 1253              		.loc 1 253 38 is_stmt 0 view .LVU331
 1254 00d0 02EB4200 		add	r0, r2, r2, lsl #1
 1255              		.loc 1 253 25 view .LVU332
 1256 00d4 00F1010E 		add	lr, r0, #1
 1257              		.loc 1 253 50 view .LVU333
 1258 00d8 03EB4301 		add	r1, r3, r3, lsl #1
 1259              		.loc 1 253 42 view .LVU334
 1260 00dc 8E44     		add	lr, lr, r1
 1261              		.loc 1 253 82 view .LVU335
 1262 00de B4F90250 		ldrsh	r5, [r4, #2]
 1263              		.loc 1 253 55 view .LVU336
 1264 00e2 2CF81E50 		strh	r5, [ip, lr, lsl #1]	@ movhi
 254:Core/Src/peripherals.c ****             bmi2_data[2 + acc_frames * 3 + frame * 3] = (int16_t)gyro_data[frame].z;
 1265              		.loc 1 254 13 is_stmt 1 view .LVU337
 1266              		.loc 1 254 25 is_stmt 0 view .LVU338
 1267 00e6 0230     		adds	r0, r0, #2
 1268              		.loc 1 254 42 view .LVU339
 1269 00e8 0144     		add	r1, r1, r0
 1270              		.loc 1 254 82 view .LVU340
 1271 00ea B4F90400 		ldrsh	r0, [r4, #4]
 1272              		.loc 1 254 55 view .LVU341
 1273 00ee 2CF81100 		strh	r0, [ip, r1, lsl #1]	@ movhi
 251:Core/Src/peripherals.c ****             bmi2_data[acc_frames * 3 + frame * 3] = (int16_t)gyro_data[frame].x;
 1274              		.loc 1 251 54 is_stmt 1 discriminator 3 view .LVU342
 1275 00f2 0133     		adds	r3, r3, #1
 1276              	.LVL122:
 1277              	.L76:
 251:Core/Src/peripherals.c ****             bmi2_data[acc_frames * 3 + frame * 3] = (int16_t)gyro_data[frame].x;
 1278              		.loc 1 251 35 discriminator 1 view .LVU343
 1279 00f4 BDF80E10 		ldrh	r1, [sp, #14]
 1280 00f8 9942     		cmp	r1, r3
 1281 00fa DADC     		bgt	.L77
 1282              	.LBE25:
 255:Core/Src/peripherals.c ****         }
 256:Core/Src/peripherals.c ****         payload_size = 2 * (3 * acc_frames + 3 * gyr_frames);
 1283              		.loc 1 256 9 view .LVU344
 1284              		.loc 1 256 44 is_stmt 0 view .LVU345
 1285 00fc 0A44     		add	r2, r2, r1
 1286              		.loc 1 256 26 view .LVU346
 1287 00fe 02EB4202 		add	r2, r2, r2, lsl #1
 1288 0102 5200     		lsls	r2, r2, #1
 1289              		.loc 1 256 22 view .LVU347
 1290 0104 184D     		ldr	r5, .L82+24
 1291 0106 2A60     		str	r2, [r5]
 257:Core/Src/peripherals.c ****         //printf("Decoded %i acc frames and %i gyro frames.\n",acc_frames, gyr_frames);
 258:Core/Src/peripherals.c ****         packet imu_data = {0};
 1292              		.loc 1 258 9 is_stmt 1 view .LVU348
 1293              		.loc 1 258 16 is_stmt 0 view .LVU349
 1294 0108 04AC     		add	r4, sp, #16
 1295 010a 0023     		movs	r3, #0
 1296              	.LVL123:
 1297              		.loc 1 258 16 view .LVU350
 1298 010c 0493     		str	r3, [sp, #16]
 1299 010e 0593     		str	r3, [sp, #20]
ARM GAS  /var/folders/gv/t2w3mcd17yl2fynvjl120d0m0000gn/T//ccUzLJxe.s 			page 33


 1300 0110 0693     		str	r3, [sp, #24]
 1301 0112 0793     		str	r3, [sp, #28]
 1302 0114 0893     		str	r3, [sp, #32]
 259:Core/Src/peripherals.c ****         imu_data.type = PACKET_IMU;
 1303              		.loc 1 259 9 is_stmt 1 view .LVU351
 1304              		.loc 1 259 23 is_stmt 0 view .LVU352
 1305 0116 0423     		movs	r3, #4
 1306 0118 8DF81030 		strb	r3, [sp, #16]
 260:Core/Src/peripherals.c ****         imu_data.timestamp = HAL_GetTick() - startTime; // overflow after ~49 days
 1307              		.loc 1 260 9 is_stmt 1 view .LVU353
 1308              		.loc 1 260 30 is_stmt 0 view .LVU354
 1309 011c FFF7FEFF 		bl	HAL_GetTick
 1310              	.LVL124:
 1311              		.loc 1 260 44 discriminator 1 view .LVU355
 1312 0120 124B     		ldr	r3, .L82+28
 1313 0122 1B68     		ldr	r3, [r3]
 1314 0124 C01A     		subs	r0, r0, r3
 1315              		.loc 1 260 28 discriminator 1 view .LVU356
 1316 0126 0590     		str	r0, [sp, #20]
 261:Core/Src/peripherals.c ****         imu_data.rtcTimestamp = rtcElapsed();
 1317              		.loc 1 261 9 is_stmt 1 view .LVU357
 1318              		.loc 1 261 33 is_stmt 0 view .LVU358
 1319 0128 FFF7FEFF 		bl	rtcElapsed
 1320              	.LVL125:
 1321              		.loc 1 261 31 discriminator 1 view .LVU359
 1322 012c 0690     		str	r0, [sp, #24]
 262:Core/Src/peripherals.c ****         imu_data.len = payload_size;
 1323              		.loc 1 262 9 is_stmt 1 view .LVU360
 1324              		.loc 1 262 22 is_stmt 0 view .LVU361
 1325 012e 2B68     		ldr	r3, [r5]
 1326 0130 0793     		str	r3, [sp, #28]
 263:Core/Src/peripherals.c ****         imu_data.payload = (uint8_t*)bmi2_data;
 1327              		.loc 1 263 9 is_stmt 1 view .LVU362
 1328              		.loc 1 263 26 is_stmt 0 view .LVU363
 1329 0132 0C4B     		ldr	r3, .L82+20
 1330 0134 0893     		str	r3, [sp, #32]
 264:Core/Src/peripherals.c ****         writePacket(imu_data);
 1331              		.loc 1 264 9 is_stmt 1 view .LVU364
 1332 0136 0093     		str	r3, [sp]
 1333 0138 94E80F00 		ldm	r4, {r0, r1, r2, r3}
 1334 013c FFF7FEFF 		bl	writePacket
 1335              	.LVL126:
 265:Core/Src/peripherals.c ****         bmi2_get_int_status(&int_status, &bmi270);
 1336              		.loc 1 265 9 view .LVU365
 1337 0140 0349     		ldr	r1, .L82
 1338 0142 0DF62640 		addw	r0, sp, #3110
 1339 0146 FFF7FEFF 		bl	bmi2_get_int_status
 1340              	.LVL127:
 1341              	.L69:
 1342              		.loc 1 265 9 is_stmt 0 view .LVU366
 1343              	.LBE26:
 266:Core/Src/peripherals.c ****         //printf("FIFO Status: %i\n",int_status);
 267:Core/Src/peripherals.c ****     }
 268:Core/Src/peripherals.c **** }
 1344              		.loc 1 268 1 view .LVU367
 1345 014a 0DF62C4D 		addw	sp, sp, #3116
 1346              	.LCFI24:
ARM GAS  /var/folders/gv/t2w3mcd17yl2fynvjl120d0m0000gn/T//ccUzLJxe.s 			page 34


 1347              		.cfi_def_cfa_offset 12
 1348              		@ sp needed
 1349 014e 30BD     		pop	{r4, r5, pc}
 1350              	.L83:
 1351              		.align	2
 1352              	.L82:
 1353 0150 00000000 		.word	bmi270
 1354 0154 00000000 		.word	fifo
 1355 0158 00000000 		.word	.LC11
 1356 015c 24000000 		.word	.LC12
 1357 0160 54000000 		.word	.LC13
 1358 0164 00000000 		.word	bmi2_data
 1359 0168 00000000 		.word	payload_size
 1360 016c 00000000 		.word	startTime
 1361              		.cfi_endproc
 1362              	.LFE242:
 1364              		.section	.rodata.GPS_Start.str1.4,"aMS",%progbits,1
 1365              		.align	2
 1366              	.LC14:
 1367 0000 47505320 		.ascii	"GPS start success: %i\012\000"
 1367      73746172 
 1367      74207375 
 1367      63636573 
 1367      733A2025 
 1368              		.section	.text.GPS_Start,"ax",%progbits
 1369              		.align	1
 1370              		.global	GPS_Start
 1371              		.syntax unified
 1372              		.thumb
 1373              		.thumb_func
 1375              	GPS_Start:
 1376              	.LFB243:
 269:Core/Src/peripherals.c **** 
 270:Core/Src/peripherals.c **** void GPS_Start()
 271:Core/Src/peripherals.c **** {
 1377              		.loc 1 271 1 is_stmt 1 view -0
 1378              		.cfi_startproc
 1379              		@ args = 0, pretend = 0, frame = 0
 1380              		@ frame_needed = 0, uses_anonymous_args = 0
 1381 0000 08B5     		push	{r3, lr}
 1382              	.LCFI25:
 1383              		.cfi_def_cfa_offset 8
 1384              		.cfi_offset 3, -8
 1385              		.cfi_offset 14, -4
 272:Core/Src/peripherals.c ****     __HAL_UART_CLEAR_IT(&huart1, UART_CLEAR_NEF|UART_CLEAR_OREF);
 1386              		.loc 1 272 5 view .LVU369
 1387 0002 0648     		ldr	r0, .L86
 1388 0004 0368     		ldr	r3, [r0]
 1389 0006 0C22     		movs	r2, #12
 1390 0008 1A62     		str	r2, [r3, #32]
 273:Core/Src/peripherals.c ****     int status = HAL_UART_Receive_IT(&huart1, &gps_char, 1);
 1391              		.loc 1 273 5 view .LVU370
 1392              		.loc 1 273 18 is_stmt 0 view .LVU371
 1393 000a 0122     		movs	r2, #1
 1394 000c 0449     		ldr	r1, .L86+4
 1395 000e FFF7FEFF 		bl	HAL_UART_Receive_IT
 1396              	.LVL128:
ARM GAS  /var/folders/gv/t2w3mcd17yl2fynvjl120d0m0000gn/T//ccUzLJxe.s 			page 35


 1397 0012 0146     		mov	r1, r0
 1398              	.LVL129:
 274:Core/Src/peripherals.c ****     printf("GPS start success: %i\n",status);
 1399              		.loc 1 274 5 is_stmt 1 view .LVU372
 1400 0014 0348     		ldr	r0, .L86+8
 1401              	.LVL130:
 1402              		.loc 1 274 5 is_stmt 0 view .LVU373
 1403 0016 FFF7FEFF 		bl	printf
 1404              	.LVL131:
 275:Core/Src/peripherals.c **** }
 1405              		.loc 1 275 1 view .LVU374
 1406 001a 08BD     		pop	{r3, pc}
 1407              	.L87:
 1408              		.align	2
 1409              	.L86:
 1410 001c 00000000 		.word	huart1
 1411 0020 00000000 		.word	gps_char
 1412 0024 00000000 		.word	.LC14
 1413              		.cfi_endproc
 1414              	.LFE243:
 1416              		.section	.rodata.HAL_UART_RxCpltCallback.str1.4,"aMS",%progbits,1
 1417              		.align	2
 1418              	.LC15:
 1419 0000 24474E52 		.ascii	"$GNRMC\000"
 1419      4D4300
 1420              		.section	.text.HAL_UART_RxCpltCallback,"ax",%progbits
 1421              		.align	1
 1422              		.global	HAL_UART_RxCpltCallback
 1423              		.syntax unified
 1424              		.thumb
 1425              		.thumb_func
 1427              	HAL_UART_RxCpltCallback:
 1428              	.LVL132:
 1429              	.LFB244:
 276:Core/Src/peripherals.c **** 
 277:Core/Src/peripherals.c **** void HAL_UART_RxCpltCallback(UART_HandleTypeDef *huart)
 278:Core/Src/peripherals.c **** {
 1430              		.loc 1 278 1 is_stmt 1 view -0
 1431              		.cfi_startproc
 1432              		@ args = 0, pretend = 0, frame = 0
 1433              		@ frame_needed = 0, uses_anonymous_args = 0
 1434              		.loc 1 278 1 is_stmt 0 view .LVU376
 1435 0000 08B5     		push	{r3, lr}
 1436              	.LCFI26:
 1437              		.cfi_def_cfa_offset 8
 1438              		.cfi_offset 3, -8
 1439              		.cfi_offset 14, -4
 279:Core/Src/peripherals.c ****     if (huart == &huart1)
 1440              		.loc 1 279 5 is_stmt 1 view .LVU377
 1441              		.loc 1 279 8 is_stmt 0 view .LVU378
 1442 0002 1C4B     		ldr	r3, .L95
 1443 0004 9842     		cmp	r0, r3
 1444 0006 00D0     		beq	.L94
 1445              	.LVL133:
 1446              	.L88:
 280:Core/Src/peripherals.c ****     {
 281:Core/Src/peripherals.c ****         //printf("%c",gps_char);
ARM GAS  /var/folders/gv/t2w3mcd17yl2fynvjl120d0m0000gn/T//ccUzLJxe.s 			page 36


 282:Core/Src/peripherals.c ****         if (gps_idx < sizeof(nmea_recv)-1)
 283:Core/Src/peripherals.c ****         {
 284:Core/Src/peripherals.c ****             nmea_recv[gps_idx++] = gps_char;
 285:Core/Src/peripherals.c ****             //printf("NMEA: %s\n",nmea_recv);
 286:Core/Src/peripherals.c ****             if (gps_char == '\n')
 287:Core/Src/peripherals.c ****             {
 288:Core/Src/peripherals.c ****                 nmea_recv[gps_idx] = '\0';
 289:Core/Src/peripherals.c ****                 
 290:Core/Src/peripherals.c ****                 if (strncmp(nmea_recv, "$GNRMC", 6) == 0)
 291:Core/Src/peripherals.c ****                 {
 292:Core/Src/peripherals.c ****                     memcpy(saved_rmc, nmea_recv, 128);
 293:Core/Src/peripherals.c ****                     rmc_ready = 1;
 294:Core/Src/peripherals.c ****                 }
 295:Core/Src/peripherals.c **** 
 296:Core/Src/peripherals.c ****                 gps_idx = 0;
 297:Core/Src/peripherals.c ****             }
 298:Core/Src/peripherals.c ****         }
 299:Core/Src/peripherals.c ****         else
 300:Core/Src/peripherals.c ****         {
 301:Core/Src/peripherals.c ****             gps_idx = 0; // overflow recovery
 302:Core/Src/peripherals.c ****         }
 303:Core/Src/peripherals.c ****         __HAL_UART_CLEAR_IT(&huart1, UART_CLEAR_NEF|UART_CLEAR_OREF);
 304:Core/Src/peripherals.c ****         HAL_UART_Receive_IT(&huart1, &gps_char, 1);
 305:Core/Src/peripherals.c ****     }
 306:Core/Src/peripherals.c **** }
 1447              		.loc 1 306 1 view .LVU379
 1448 0008 08BD     		pop	{r3, pc}
 1449              	.LVL134:
 1450              	.L94:
 282:Core/Src/peripherals.c ****         {
 1451              		.loc 1 282 9 is_stmt 1 view .LVU380
 282:Core/Src/peripherals.c ****         {
 1452              		.loc 1 282 21 is_stmt 0 view .LVU381
 1453 000a 1B4B     		ldr	r3, .L95+4
 1454 000c 1B88     		ldrh	r3, [r3]
 1455 000e 9BB2     		uxth	r3, r3
 282:Core/Src/peripherals.c ****         {
 1456              		.loc 1 282 12 view .LVU382
 1457 0010 7E2B     		cmp	r3, #126
 1458 0012 23D8     		bhi	.L90
 284:Core/Src/peripherals.c ****             //printf("NMEA: %s\n",nmea_recv);
 1459              		.loc 1 284 13 is_stmt 1 view .LVU383
 284:Core/Src/peripherals.c ****             //printf("NMEA: %s\n",nmea_recv);
 1460              		.loc 1 284 30 is_stmt 0 view .LVU384
 1461 0014 1849     		ldr	r1, .L95+4
 1462 0016 0B88     		ldrh	r3, [r1]
 1463 0018 9BB2     		uxth	r3, r3
 1464 001a 5A1C     		adds	r2, r3, #1
 1465 001c 92B2     		uxth	r2, r2
 1466 001e 0A80     		strh	r2, [r1]	@ movhi
 284:Core/Src/peripherals.c ****             //printf("NMEA: %s\n",nmea_recv);
 1467              		.loc 1 284 34 view .LVU385
 1468 0020 164A     		ldr	r2, .L95+8
 1469 0022 1078     		ldrb	r0, [r2]	@ zero_extendqisi2
 1470              	.LVL135:
 284:Core/Src/peripherals.c ****             //printf("NMEA: %s\n",nmea_recv);
 1471              		.loc 1 284 34 view .LVU386
ARM GAS  /var/folders/gv/t2w3mcd17yl2fynvjl120d0m0000gn/T//ccUzLJxe.s 			page 37


 1472 0024 1649     		ldr	r1, .L95+12
 1473 0026 C854     		strb	r0, [r1, r3]
 286:Core/Src/peripherals.c ****             {
 1474              		.loc 1 286 13 is_stmt 1 view .LVU387
 286:Core/Src/peripherals.c ****             {
 1475              		.loc 1 286 26 is_stmt 0 view .LVU388
 1476 0028 1378     		ldrb	r3, [r2]	@ zero_extendqisi2
 286:Core/Src/peripherals.c ****             {
 1477              		.loc 1 286 16 view .LVU389
 1478 002a 0A2B     		cmp	r3, #10
 1479 002c 19D1     		bne	.L91
 288:Core/Src/peripherals.c ****                 
 1480              		.loc 1 288 17 is_stmt 1 view .LVU390
 288:Core/Src/peripherals.c ****                 
 1481              		.loc 1 288 26 is_stmt 0 view .LVU391
 1482 002e 124B     		ldr	r3, .L95+4
 1483 0030 1B88     		ldrh	r3, [r3]
 1484 0032 9BB2     		uxth	r3, r3
 288:Core/Src/peripherals.c ****                 
 1485              		.loc 1 288 36 view .LVU392
 1486 0034 0846     		mov	r0, r1
 1487 0036 0022     		movs	r2, #0
 1488 0038 CA54     		strb	r2, [r1, r3]
 290:Core/Src/peripherals.c ****                 {
 1489              		.loc 1 290 17 is_stmt 1 view .LVU393
 290:Core/Src/peripherals.c ****                 {
 1490              		.loc 1 290 21 is_stmt 0 view .LVU394
 1491 003a 0622     		movs	r2, #6
 1492 003c 1149     		ldr	r1, .L95+16
 1493 003e FFF7FEFF 		bl	strncmp
 1494              	.LVL136:
 290:Core/Src/peripherals.c ****                 {
 1495              		.loc 1 290 20 discriminator 1 view .LVU395
 1496 0042 38B9     		cbnz	r0, .L92
 292:Core/Src/peripherals.c ****                     rmc_ready = 1;
 1497              		.loc 1 292 21 is_stmt 1 view .LVU396
 1498 0044 8022     		movs	r2, #128
 1499 0046 0E49     		ldr	r1, .L95+12
 1500 0048 0F48     		ldr	r0, .L95+20
 1501 004a FFF7FEFF 		bl	memcpy
 1502              	.LVL137:
 293:Core/Src/peripherals.c ****                 }
 1503              		.loc 1 293 21 view .LVU397
 293:Core/Src/peripherals.c ****                 }
 1504              		.loc 1 293 31 is_stmt 0 view .LVU398
 1505 004e 0F4B     		ldr	r3, .L95+24
 1506 0050 0122     		movs	r2, #1
 1507 0052 1A70     		strb	r2, [r3]
 1508              	.L92:
 296:Core/Src/peripherals.c ****             }
 1509              		.loc 1 296 17 is_stmt 1 view .LVU399
 296:Core/Src/peripherals.c ****             }
 1510              		.loc 1 296 25 is_stmt 0 view .LVU400
 1511 0054 084B     		ldr	r3, .L95+4
 1512 0056 0022     		movs	r2, #0
 1513 0058 1A80     		strh	r2, [r3]	@ movhi
 1514 005a 02E0     		b	.L91
ARM GAS  /var/folders/gv/t2w3mcd17yl2fynvjl120d0m0000gn/T//ccUzLJxe.s 			page 38


 1515              	.LVL138:
 1516              	.L90:
 301:Core/Src/peripherals.c ****         }
 1517              		.loc 1 301 13 is_stmt 1 view .LVU401
 301:Core/Src/peripherals.c ****         }
 1518              		.loc 1 301 21 is_stmt 0 view .LVU402
 1519 005c 064B     		ldr	r3, .L95+4
 1520 005e 0022     		movs	r2, #0
 1521 0060 1A80     		strh	r2, [r3]	@ movhi
 1522              	.LVL139:
 1523              	.L91:
 303:Core/Src/peripherals.c ****         HAL_UART_Receive_IT(&huart1, &gps_char, 1);
 1524              		.loc 1 303 9 is_stmt 1 view .LVU403
 1525 0062 0448     		ldr	r0, .L95
 1526 0064 0368     		ldr	r3, [r0]
 1527 0066 0C22     		movs	r2, #12
 1528 0068 1A62     		str	r2, [r3, #32]
 304:Core/Src/peripherals.c ****     }
 1529              		.loc 1 304 9 view .LVU404
 1530 006a 0122     		movs	r2, #1
 1531 006c 0349     		ldr	r1, .L95+8
 1532 006e FFF7FEFF 		bl	HAL_UART_Receive_IT
 1533              	.LVL140:
 1534              		.loc 1 306 1 is_stmt 0 view .LVU405
 1535 0072 C9E7     		b	.L88
 1536              	.L96:
 1537              		.align	2
 1538              	.L95:
 1539 0074 00000000 		.word	huart1
 1540 0078 00000000 		.word	gps_idx
 1541 007c 00000000 		.word	gps_char
 1542 0080 00000000 		.word	nmea_recv
 1543 0084 00000000 		.word	.LC15
 1544 0088 00000000 		.word	saved_rmc
 1545 008c 00000000 		.word	rmc_ready
 1546              		.cfi_endproc
 1547              	.LFE244:
 1549              		.section	.rodata.readGPS.str1.4,"aMS",%progbits,1
 1550              		.align	2
 1551              	.LC16:
 1552 0000 72656365 		.ascii	"received message: %s\000"
 1552      69766564 
 1552      206D6573 
 1552      73616765 
 1552      3A202573 
 1553              		.section	.text.readGPS,"ax",%progbits
 1554              		.align	1
 1555              		.global	readGPS
 1556              		.syntax unified
 1557              		.thumb
 1558              		.thumb_func
 1560              	readGPS:
 1561              	.LFB245:
 307:Core/Src/peripherals.c **** 
 308:Core/Src/peripherals.c **** void readGPS() {
 1562              		.loc 1 308 16 is_stmt 1 view -0
 1563              		.cfi_startproc
ARM GAS  /var/folders/gv/t2w3mcd17yl2fynvjl120d0m0000gn/T//ccUzLJxe.s 			page 39


 1564              		@ args = 0, pretend = 0, frame = 152
 1565              		@ frame_needed = 0, uses_anonymous_args = 0
 309:Core/Src/peripherals.c ****     if (rmc_ready) {
 1566              		.loc 1 309 5 view .LVU407
 1567              		.loc 1 309 9 is_stmt 0 view .LVU408
 1568 0000 174B     		ldr	r3, .L104
 1569 0002 1B78     		ldrb	r3, [r3]	@ zero_extendqisi2
 1570              		.loc 1 309 8 view .LVU409
 1571 0004 03B9     		cbnz	r3, .L103
 1572 0006 7047     		bx	lr
 1573              	.L103:
 308:Core/Src/peripherals.c ****     if (rmc_ready) {
 1574              		.loc 1 308 16 view .LVU410
 1575 0008 F0B5     		push	{r4, r5, r6, r7, lr}
 1576              	.LCFI27:
 1577              		.cfi_def_cfa_offset 20
 1578              		.cfi_offset 4, -20
 1579              		.cfi_offset 5, -16
 1580              		.cfi_offset 6, -12
 1581              		.cfi_offset 7, -8
 1582              		.cfi_offset 14, -4
 1583 000a A9B0     		sub	sp, sp, #164
 1584              	.LCFI28:
 1585              		.cfi_def_cfa_offset 184
 1586              	.LBB27:
 310:Core/Src/peripherals.c ****         uint8_t rmc[128];
 1587              		.loc 1 310 9 is_stmt 1 view .LVU411
 311:Core/Src/peripherals.c ****         memcpy(rmc, saved_rmc, 128);
 1588              		.loc 1 311 9 view .LVU412
 1589 000c 08AE     		add	r6, sp, #32
 1590 000e 8022     		movs	r2, #128
 1591 0010 1449     		ldr	r1, .L104+4
 1592 0012 3046     		mov	r0, r6
 1593 0014 FFF7FEFF 		bl	memcpy
 1594              	.LVL141:
 312:Core/Src/peripherals.c ****         printf("received message: %s", rmc);
 1595              		.loc 1 312 9 view .LVU413
 1596 0018 3146     		mov	r1, r6
 1597 001a 1348     		ldr	r0, .L104+8
 1598 001c FFF7FEFF 		bl	printf
 1599              	.LVL142:
 313:Core/Src/peripherals.c ****         rmc_ready = 0;
 1600              		.loc 1 313 9 view .LVU414
 1601              		.loc 1 313 19 is_stmt 0 view .LVU415
 1602 0020 0025     		movs	r5, #0
 1603 0022 0F4B     		ldr	r3, .L104
 1604 0024 1D70     		strb	r5, [r3]
 314:Core/Src/peripherals.c ****         uint32_t len = strlen(rmc);
 1605              		.loc 1 314 9 is_stmt 1 view .LVU416
 1606              		.loc 1 314 24 is_stmt 0 view .LVU417
 1607 0026 3046     		mov	r0, r6
 1608 0028 FFF7FEFF 		bl	strlen
 1609              	.LVL143:
 1610 002c 0746     		mov	r7, r0
 1611              	.LVL144:
 315:Core/Src/peripherals.c ****         packet gpsPacket = {0};
 1612              		.loc 1 315 9 is_stmt 1 view .LVU418
ARM GAS  /var/folders/gv/t2w3mcd17yl2fynvjl120d0m0000gn/T//ccUzLJxe.s 			page 40


 1613              		.loc 1 315 16 is_stmt 0 view .LVU419
 1614 002e 03AC     		add	r4, sp, #12
 1615 0030 0395     		str	r5, [sp, #12]
 1616 0032 0495     		str	r5, [sp, #16]
 1617 0034 0595     		str	r5, [sp, #20]
 1618 0036 0695     		str	r5, [sp, #24]
 1619 0038 0795     		str	r5, [sp, #28]
 316:Core/Src/peripherals.c ****         gpsPacket.type = PACKET_GPS;
 1620              		.loc 1 316 9 is_stmt 1 view .LVU420
 317:Core/Src/peripherals.c ****         gpsPacket.timestamp = HAL_GetTick() - startTime;
 1621              		.loc 1 317 9 view .LVU421
 1622              		.loc 1 317 31 is_stmt 0 view .LVU422
 1623 003a FFF7FEFF 		bl	HAL_GetTick
 1624              	.LVL145:
 1625              		.loc 1 317 45 discriminator 1 view .LVU423
 1626 003e 0B4B     		ldr	r3, .L104+12
 1627 0040 1B68     		ldr	r3, [r3]
 1628 0042 C01A     		subs	r0, r0, r3
 1629              		.loc 1 317 29 discriminator 1 view .LVU424
 1630 0044 0490     		str	r0, [sp, #16]
 318:Core/Src/peripherals.c ****         gpsPacket.rtcTimestamp = rtcElapsed();
 1631              		.loc 1 318 9 is_stmt 1 view .LVU425
 1632              		.loc 1 318 34 is_stmt 0 view .LVU426
 1633 0046 FFF7FEFF 		bl	rtcElapsed
 1634              	.LVL146:
 1635              		.loc 1 318 32 discriminator 1 view .LVU427
 1636 004a 0590     		str	r0, [sp, #20]
 319:Core/Src/peripherals.c ****         gpsPacket.len = len;
 1637              		.loc 1 319 9 is_stmt 1 view .LVU428
 1638              		.loc 1 319 23 is_stmt 0 view .LVU429
 1639 004c 0697     		str	r7, [sp, #24]
 320:Core/Src/peripherals.c ****         gpsPacket.payload = (uint8_t*)rmc;
 1640              		.loc 1 320 9 is_stmt 1 view .LVU430
 1641              		.loc 1 320 27 is_stmt 0 view .LVU431
 1642 004e 0796     		str	r6, [sp, #28]
 321:Core/Src/peripherals.c ****         writePacket(gpsPacket);
 1643              		.loc 1 321 9 is_stmt 1 view .LVU432
 1644 0050 0096     		str	r6, [sp]
 1645 0052 94E80F00 		ldm	r4, {r0, r1, r2, r3}
 1646 0056 FFF7FEFF 		bl	writePacket
 1647              	.LVL147:
 1648              	.LBE27:
 322:Core/Src/peripherals.c ****     } else {
 323:Core/Src/peripherals.c ****         return;
 324:Core/Src/peripherals.c ****     }
 325:Core/Src/peripherals.c **** }
 1649              		.loc 1 325 1 is_stmt 0 view .LVU433
 1650 005a 29B0     		add	sp, sp, #164
 1651              	.LCFI29:
 1652              		.cfi_def_cfa_offset 20
 1653              		@ sp needed
 1654 005c F0BD     		pop	{r4, r5, r6, r7, pc}
 1655              	.LVL148:
 1656              	.L105:
 1657              		.loc 1 325 1 view .LVU434
 1658 005e 00BF     		.align	2
 1659              	.L104:
ARM GAS  /var/folders/gv/t2w3mcd17yl2fynvjl120d0m0000gn/T//ccUzLJxe.s 			page 41


 1660 0060 00000000 		.word	rmc_ready
 1661 0064 00000000 		.word	saved_rmc
 1662 0068 00000000 		.word	.LC16
 1663 006c 00000000 		.word	startTime
 1664              		.cfi_endproc
 1665              	.LFE245:
 1667              		.section	.rodata.initBMIC.str1.4,"aMS",%progbits,1
 1668              		.align	2
 1669              	.LC17:
 1670 0000 53746174 		.ascii	"Status=%d\012\000"
 1670      75733D25 
 1670      640A00
 1671 000b 00       		.align	2
 1672              	.LC18:
 1673 000c 25303258 		.ascii	"%02X: %02X\012\000"
 1673      3A202530 
 1673      32580A00 
 1674              		.section	.text.initBMIC,"ax",%progbits
 1675              		.align	1
 1676              		.global	initBMIC
 1677              		.syntax unified
 1678              		.thumb
 1679              		.thumb_func
 1681              	initBMIC:
 1682              	.LFB246:
 326:Core/Src/peripherals.c **** 
 327:Core/Src/peripherals.c **** void initBMIC() {
 1683              		.loc 1 327 17 is_stmt 1 view -0
 1684              		.cfi_startproc
 1685              		@ args = 0, pretend = 0, frame = 16
 1686              		@ frame_needed = 0, uses_anonymous_args = 0
 1687 0000 10B5     		push	{r4, lr}
 1688              	.LCFI30:
 1689              		.cfi_def_cfa_offset 8
 1690              		.cfi_offset 4, -8
 1691              		.cfi_offset 14, -4
 1692 0002 88B0     		sub	sp, sp, #32
 1693              	.LCFI31:
 1694              		.cfi_def_cfa_offset 40
 328:Core/Src/peripherals.c ****     uint8_t bmicAddr = 0b1100100;
 1695              		.loc 1 328 5 view .LVU436
 1696              	.LVL149:
 329:Core/Src/peripherals.c ****     //printf("%02x 0b%02x\n",pow, control);
 330:Core/Src/peripherals.c ****     //write 0 to control register - sets M (prescaler) to 1, giving highest precision
 331:Core/Src/peripherals.c ****     HAL_StatusTypeDef status;
 1697              		.loc 1 331 5 view .LVU437
 332:Core/Src/peripherals.c **** 
 333:Core/Src/peripherals.c ****     uint8_t regs[8];
 1698              		.loc 1 333 5 view .LVU438
 334:Core/Src/peripherals.c **** 
 335:Core/Src/peripherals.c ****     status = HAL_I2C_Mem_Read(
 1699              		.loc 1 335 5 view .LVU439
 1700              		.loc 1 335 14 is_stmt 0 view .LVU440
 1701 0004 4FF0FF33 		mov	r3, #-1
 1702 0008 0293     		str	r3, [sp, #8]
 1703 000a 0823     		movs	r3, #8
 1704 000c 0193     		str	r3, [sp, #4]
ARM GAS  /var/folders/gv/t2w3mcd17yl2fynvjl120d0m0000gn/T//ccUzLJxe.s 			page 42


 1705 000e 06AB     		add	r3, sp, #24
 1706 0010 0093     		str	r3, [sp]
 1707 0012 0123     		movs	r3, #1
 1708 0014 0022     		movs	r2, #0
 1709 0016 C821     		movs	r1, #200
 1710 0018 1848     		ldr	r0, .L111
 1711 001a FFF7FEFF 		bl	HAL_I2C_Mem_Read
 1712              	.LVL150:
 1713 001e 0146     		mov	r1, r0
 1714              	.LVL151:
 336:Core/Src/peripherals.c ****         &hi2c1,
 337:Core/Src/peripherals.c ****         bmicAddr << 1,
 338:Core/Src/peripherals.c ****         0x00,
 339:Core/Src/peripherals.c ****         I2C_MEMADD_SIZE_8BIT,
 340:Core/Src/peripherals.c ****         regs,
 341:Core/Src/peripherals.c ****         8,
 342:Core/Src/peripherals.c ****         HAL_MAX_DELAY);
 343:Core/Src/peripherals.c **** 
 344:Core/Src/peripherals.c ****     printf("Status=%d\n", status);
 1715              		.loc 1 344 5 is_stmt 1 view .LVU441
 1716 0020 1748     		ldr	r0, .L111+4
 1717 0022 FFF7FEFF 		bl	printf
 1718              	.LVL152:
 345:Core/Src/peripherals.c **** 
 346:Core/Src/peripherals.c ****     for(int i = 0; i < 8; i++)
 1719              		.loc 1 346 5 view .LVU442
 1720              	.LBB28:
 1721              		.loc 1 346 9 view .LVU443
 1722              		.loc 1 346 13 is_stmt 0 view .LVU444
 1723 0026 0024     		movs	r4, #0
 1724              		.loc 1 346 5 view .LVU445
 1725 0028 09E0     		b	.L107
 1726              	.LVL153:
 1727              	.L108:
 347:Core/Src/peripherals.c ****     {
 348:Core/Src/peripherals.c ****         printf("%02X: %02X\n", i, regs[i]);
 1728              		.loc 1 348 9 is_stmt 1 view .LVU446
 1729              		.loc 1 348 39 is_stmt 0 view .LVU447
 1730 002a 04F12003 		add	r3, r4, #32
 1731 002e 6B44     		add	r3, sp, r3
 1732              		.loc 1 348 9 view .LVU448
 1733 0030 13F8082C 		ldrb	r2, [r3, #-8]	@ zero_extendqisi2
 1734 0034 2146     		mov	r1, r4
 1735 0036 1348     		ldr	r0, .L111+8
 1736 0038 FFF7FEFF 		bl	printf
 1737              	.LVL154:
 346:Core/Src/peripherals.c ****     {
 1738              		.loc 1 346 28 is_stmt 1 discriminator 3 view .LVU449
 1739 003c 0134     		adds	r4, r4, #1
 1740              	.LVL155:
 1741              	.L107:
 346:Core/Src/peripherals.c ****     {
 1742              		.loc 1 346 22 discriminator 1 view .LVU450
 1743 003e 072C     		cmp	r4, #7
 1744 0040 F3DD     		ble	.L108
 1745              	.LBE28:
 349:Core/Src/peripherals.c ****     }
ARM GAS  /var/folders/gv/t2w3mcd17yl2fynvjl120d0m0000gn/T//ccUzLJxe.s 			page 43


 350:Core/Src/peripherals.c **** 
 351:Core/Src/peripherals.c ****     Write_I2C_Reg(bmicAddr, 1, 0b00001000, 1);
 1746              		.loc 1 351 5 view .LVU451
 1747 0042 0123     		movs	r3, #1
 1748 0044 0822     		movs	r2, #8
 1749 0046 1946     		mov	r1, r3
 1750 0048 6420     		movs	r0, #100
 1751 004a FFF7FEFF 		bl	Write_I2C_Reg
 1752              	.LVL156:
 352:Core/Src/peripherals.c **** 
 353:Core/Src/peripherals.c ****     uint8_t acr_buf[2];
 1753              		.loc 1 353 5 view .LVU452
 354:Core/Src/peripherals.c **** 
 355:Core/Src/peripherals.c ****     //initialize lastAcc
 356:Core/Src/peripherals.c ****     status = HAL_I2C_Mem_Read(
 1754              		.loc 1 356 5 view .LVU453
 1755              		.loc 1 356 14 is_stmt 0 view .LVU454
 1756 004e 3223     		movs	r3, #50
 1757 0050 0293     		str	r3, [sp, #8]
 1758 0052 0222     		movs	r2, #2
 1759 0054 0192     		str	r2, [sp, #4]
 1760 0056 05AB     		add	r3, sp, #20
 1761 0058 0093     		str	r3, [sp]
 1762 005a 0123     		movs	r3, #1
 1763 005c C821     		movs	r1, #200
 1764 005e 0748     		ldr	r0, .L111
 1765 0060 FFF7FEFF 		bl	HAL_I2C_Mem_Read
 1766              	.LVL157:
 357:Core/Src/peripherals.c ****         &hi2c1,
 358:Core/Src/peripherals.c ****         bmicAddr << 1,    // STM32 HAL expects 8-bit address
 359:Core/Src/peripherals.c ****         0x02,                 // ACR MSB register
 360:Core/Src/peripherals.c ****         I2C_MEMADD_SIZE_8BIT,
 361:Core/Src/peripherals.c ****         acr_buf,
 362:Core/Src/peripherals.c ****         2,                    // Read MSB + LSB together
 363:Core/Src/peripherals.c ****         50);
 364:Core/Src/peripherals.c ****     if (status == HAL_OK) {
 1767              		.loc 1 364 5 is_stmt 1 view .LVU455
 1768              		.loc 1 364 8 is_stmt 0 view .LVU456
 1769 0064 38B9     		cbnz	r0, .L106
 365:Core/Src/peripherals.c ****         lastAcc = (acr_buf[0] << 8) | acr_buf[1];
 1770              		.loc 1 365 9 is_stmt 1 view .LVU457
 1771              		.loc 1 365 27 is_stmt 0 view .LVU458
 1772 0066 9DF81420 		ldrb	r2, [sp, #20]	@ zero_extendqisi2
 1773              		.loc 1 365 46 view .LVU459
 1774 006a 9DF81530 		ldrb	r3, [sp, #21]	@ zero_extendqisi2
 1775              		.loc 1 365 37 view .LVU460
 1776 006e 43EA0223 		orr	r3, r3, r2, lsl #8
 1777              		.loc 1 365 17 view .LVU461
 1778 0072 054A     		ldr	r2, .L111+12
 1779 0074 1380     		strh	r3, [r2]	@ movhi
 1780              	.L106:
 366:Core/Src/peripherals.c ****     }
 367:Core/Src/peripherals.c **** }
 1781              		.loc 1 367 1 view .LVU462
 1782 0076 08B0     		add	sp, sp, #32
 1783              	.LCFI32:
 1784              		.cfi_def_cfa_offset 8
ARM GAS  /var/folders/gv/t2w3mcd17yl2fynvjl120d0m0000gn/T//ccUzLJxe.s 			page 44


 1785              		@ sp needed
 1786 0078 10BD     		pop	{r4, pc}
 1787              	.LVL158:
 1788              	.L112:
 1789              		.loc 1 367 1 view .LVU463
 1790 007a 00BF     		.align	2
 1791              	.L111:
 1792 007c 00000000 		.word	hi2c1
 1793 0080 00000000 		.word	.LC17
 1794 0084 0C000000 		.word	.LC18
 1795 0088 00000000 		.word	lastAcc
 1796              		.cfi_endproc
 1797              	.LFE246:
 1799              		.section	.rodata.readBMIC.str1.4,"aMS",%progbits,1
 1800              		.align	2
 1801              	.LC19:
 1802 0000 6D697372 		.ascii	"misread high\000"
 1802      65616420 
 1802      68696768 
 1802      00
 1803 000d 000000   		.align	2
 1804              	.LC20:
 1805 0010 6D697372 		.ascii	"misread low\000"
 1805      65616420 
 1805      6C6F7700 
 1806              		.align	2
 1807              	.LC21:
 1808 001c 72656164 		.ascii	"read: 0x%04x\012\000"
 1808      3A203078 
 1808      25303478 
 1808      0A00
 1809 002a 0000     		.align	2
 1810              	.LC22:
 1811 002c 4661696C 		.ascii	"Failed to read BMIC: status %i\012\000"
 1811      65642074 
 1811      6F207265 
 1811      61642042 
 1811      4D49433A 
 1812              		.section	.text.readBMIC,"ax",%progbits
 1813              		.align	1
 1814              		.global	readBMIC
 1815              		.syntax unified
 1816              		.thumb
 1817              		.thumb_func
 1819              	readBMIC:
 1820              	.LFB247:
 368:Core/Src/peripherals.c **** 
 369:Core/Src/peripherals.c **** void readBMIC() {
 1821              		.loc 1 369 17 is_stmt 1 view -0
 1822              		.cfi_startproc
 1823              		@ args = 0, pretend = 0, frame = 24
 1824              		@ frame_needed = 0, uses_anonymous_args = 0
 1825 0000 70B5     		push	{r4, r5, r6, lr}
 1826              	.LCFI33:
 1827              		.cfi_def_cfa_offset 16
 1828              		.cfi_offset 4, -16
 1829              		.cfi_offset 5, -12
ARM GAS  /var/folders/gv/t2w3mcd17yl2fynvjl120d0m0000gn/T//ccUzLJxe.s 			page 45


 1830              		.cfi_offset 6, -8
 1831              		.cfi_offset 14, -4
 1832 0002 8AB0     		sub	sp, sp, #40
 1833              	.LCFI34:
 1834              		.cfi_def_cfa_offset 56
 370:Core/Src/peripherals.c ****     uint8_t bmicAddr = 0b1100100;
 1835              		.loc 1 370 5 view .LVU465
 1836              	.LVL159:
 371:Core/Src/peripherals.c **** 
 372:Core/Src/peripherals.c ****     uint8_t acr_buf[2];
 1837              		.loc 1 372 5 view .LVU466
 373:Core/Src/peripherals.c ****     uint16_t acc;
 1838              		.loc 1 373 5 view .LVU467
 374:Core/Src/peripherals.c **** 
 375:Core/Src/peripherals.c ****     HAL_StatusTypeDef status;
 1839              		.loc 1 375 5 view .LVU468
 376:Core/Src/peripherals.c **** 
 377:Core/Src/peripherals.c ****     status = HAL_I2C_Mem_Read(
 1840              		.loc 1 377 5 view .LVU469
 1841              		.loc 1 377 14 is_stmt 0 view .LVU470
 1842 0004 4FF0FF33 		mov	r3, #-1
 1843 0008 0293     		str	r3, [sp, #8]
 1844 000a 0222     		movs	r2, #2
 1845 000c 0192     		str	r2, [sp, #4]
 1846 000e 09AB     		add	r3, sp, #36
 1847 0010 0093     		str	r3, [sp]
 1848 0012 0123     		movs	r3, #1
 1849 0014 C821     		movs	r1, #200
 1850 0016 3348     		ldr	r0, .L125
 1851 0018 FFF7FEFF 		bl	HAL_I2C_Mem_Read
 1852              	.LVL160:
 378:Core/Src/peripherals.c ****         &hi2c1,
 379:Core/Src/peripherals.c ****         bmicAddr << 1,    // STM32 HAL expects 8-bit address
 380:Core/Src/peripherals.c ****         0x02,                 // ACR MSB register
 381:Core/Src/peripherals.c ****         I2C_MEMADD_SIZE_8BIT,
 382:Core/Src/peripherals.c ****         acr_buf,
 383:Core/Src/peripherals.c ****         2,                    // Read MSB + LSB together
 384:Core/Src/peripherals.c ****         HAL_MAX_DELAY);
 385:Core/Src/peripherals.c ****     if (status == HAL_OK) {
 1853              		.loc 1 385 5 is_stmt 1 view .LVU471
 1854              		.loc 1 385 8 is_stmt 0 view .LVU472
 1855 001c 0028     		cmp	r0, #0
 1856 001e 52D1     		bne	.L114
 1857              	.LBB29:
 386:Core/Src/peripherals.c ****         acc = (acr_buf[0] << 8) | acr_buf[1];
 1858              		.loc 1 386 9 is_stmt 1 view .LVU473
 1859              		.loc 1 386 23 is_stmt 0 view .LVU474
 1860 0020 9DF82430 		ldrb	r3, [sp, #36]	@ zero_extendqisi2
 1861              		.loc 1 386 42 view .LVU475
 1862 0024 9DF82540 		ldrb	r4, [sp, #37]	@ zero_extendqisi2
 1863              		.loc 1 386 13 view .LVU476
 1864 0028 44EA0324 		orr	r4, r4, r3, lsl #8
 1865              	.LVL161:
 387:Core/Src/peripherals.c ****         if (acc > lastAcc) { // misread (sensor was likely updating mid read)
 1866              		.loc 1 387 9 is_stmt 1 view .LVU477
 1867              		.loc 1 387 17 is_stmt 0 view .LVU478
 1868 002c 2E4B     		ldr	r3, .L125+4
ARM GAS  /var/folders/gv/t2w3mcd17yl2fynvjl120d0m0000gn/T//ccUzLJxe.s 			page 46


 1869 002e 1B88     		ldrh	r3, [r3]
 1870              		.loc 1 387 12 view .LVU479
 1871 0030 A342     		cmp	r3, r4
 1872 0032 2ED3     		bcc	.L122
 388:Core/Src/peripherals.c ****             printf("misread high\n");
 389:Core/Src/peripherals.c ****             return;
 390:Core/Src/peripherals.c ****         }
 391:Core/Src/peripherals.c ****         uint16_t diff = lastAcc - acc;
 1873              		.loc 1 391 9 is_stmt 1 view .LVU480
 1874              		.loc 1 391 18 is_stmt 0 view .LVU481
 1875 0034 1B1B     		subs	r3, r3, r4
 1876 0036 9DB2     		uxth	r5, r3
 1877              	.LVL162:
 392:Core/Src/peripherals.c ****         if (diff > 0x100) { // unrealistically large jump (also likely a misread)
 1878              		.loc 1 392 9 is_stmt 1 view .LVU482
 1879              		.loc 1 392 12 is_stmt 0 view .LVU483
 1880 0038 B5F5807F 		cmp	r5, #256
 1881 003c 2DD8     		bhi	.L123
 393:Core/Src/peripherals.c ****             printf("misread low\n");
 394:Core/Src/peripherals.c ****             return;
 395:Core/Src/peripherals.c ****         }
 396:Core/Src/peripherals.c ****         printf("read: 0x%04x\n",acc);
 1882              		.loc 1 396 9 is_stmt 1 view .LVU484
 1883 003e 2146     		mov	r1, r4
 1884 0040 2A48     		ldr	r0, .L125+8
 1885              	.LVL163:
 1886              		.loc 1 396 9 is_stmt 0 view .LVU485
 1887 0042 FFF7FEFF 		bl	printf
 1888              	.LVL164:
 397:Core/Src/peripherals.c ****         if (acc < 0x300) {
 1889              		.loc 1 397 9 is_stmt 1 view .LVU486
 1890              		.loc 1 397 12 is_stmt 0 view .LVU487
 1891 0046 B4F5407F 		cmp	r4, #768
 1892 004a 2AD3     		bcc	.L124
 1893              	.L118:
 398:Core/Src/peripherals.c ****             acc += 0x7fff;
 399:Core/Src/peripherals.c ****             Write_I2C_Reg(bmicAddr, 2, (uint8_t)(acc >> 8), 1);
 400:Core/Src/peripherals.c ****             Write_I2C_Reg(bmicAddr, 3, (uint8_t)(acc & 0xff), 1);
 401:Core/Src/peripherals.c ****         }
 402:Core/Src/peripherals.c ****         totalEnergyUsed += diff;
 1894              		.loc 1 402 9 is_stmt 1 view .LVU488
 1895              		.loc 1 402 25 is_stmt 0 view .LVU489
 1896 004c 284E     		ldr	r6, .L125+12
 1897 004e 3368     		ldr	r3, [r6]
 1898 0050 2B44     		add	r3, r3, r5
 1899 0052 3360     		str	r3, [r6]
 403:Core/Src/peripherals.c ****         float mah = 0.085f * 2.0f/128.0f * totalEnergyUsed * 0.5f;
 1900              		.loc 1 403 9 is_stmt 1 view .LVU490
 1901              	.LVL165:
 404:Core/Src/peripherals.c **** 
 405:Core/Src/peripherals.c ****         packet bmicPacket = {0};
 1902              		.loc 1 405 9 view .LVU491
 1903              		.loc 1 405 16 is_stmt 0 view .LVU492
 1904 0054 04AD     		add	r5, sp, #16
 1905              	.LVL166:
 1906              		.loc 1 405 16 view .LVU493
 1907 0056 0023     		movs	r3, #0
ARM GAS  /var/folders/gv/t2w3mcd17yl2fynvjl120d0m0000gn/T//ccUzLJxe.s 			page 47


 1908 0058 0493     		str	r3, [sp, #16]
 1909 005a 0593     		str	r3, [sp, #20]
 1910 005c 0693     		str	r3, [sp, #24]
 1911 005e 0793     		str	r3, [sp, #28]
 1912 0060 0893     		str	r3, [sp, #32]
 406:Core/Src/peripherals.c ****         bmicPacket.type = PACKET_BMIC;
 1913              		.loc 1 406 9 is_stmt 1 view .LVU494
 1914              		.loc 1 406 25 is_stmt 0 view .LVU495
 1915 0062 0323     		movs	r3, #3
 1916 0064 8DF81030 		strb	r3, [sp, #16]
 407:Core/Src/peripherals.c ****         bmicPacket.timestamp = HAL_GetTick() - startTime;
 1917              		.loc 1 407 9 is_stmt 1 view .LVU496
 1918              		.loc 1 407 32 is_stmt 0 view .LVU497
 1919 0068 FFF7FEFF 		bl	HAL_GetTick
 1920              	.LVL167:
 1921              		.loc 1 407 46 discriminator 1 view .LVU498
 1922 006c 214B     		ldr	r3, .L125+16
 1923 006e 1B68     		ldr	r3, [r3]
 1924 0070 C01A     		subs	r0, r0, r3
 1925              		.loc 1 407 30 discriminator 1 view .LVU499
 1926 0072 0590     		str	r0, [sp, #20]
 408:Core/Src/peripherals.c ****         bmicPacket.rtcTimestamp = rtcElapsed();
 1927              		.loc 1 408 9 is_stmt 1 view .LVU500
 1928              		.loc 1 408 35 is_stmt 0 view .LVU501
 1929 0074 FFF7FEFF 		bl	rtcElapsed
 1930              	.LVL168:
 1931              		.loc 1 408 33 discriminator 1 view .LVU502
 1932 0078 0690     		str	r0, [sp, #24]
 409:Core/Src/peripherals.c ****         bmicPacket.len = sizeof(uint32_t);
 1933              		.loc 1 409 9 is_stmt 1 view .LVU503
 1934              		.loc 1 409 24 is_stmt 0 view .LVU504
 1935 007a 0423     		movs	r3, #4
 1936 007c 0793     		str	r3, [sp, #28]
 410:Core/Src/peripherals.c ****         bmicPacket.payload = (uint8_t*)&totalEnergyUsed;
 1937              		.loc 1 410 9 is_stmt 1 view .LVU505
 1938              		.loc 1 410 28 is_stmt 0 view .LVU506
 1939 007e 0896     		str	r6, [sp, #32]
 411:Core/Src/peripherals.c ****         writePacket(bmicPacket);
 1940              		.loc 1 411 9 is_stmt 1 view .LVU507
 1941 0080 0096     		str	r6, [sp]
 1942 0082 95E80F00 		ldm	r5, {r0, r1, r2, r3}
 1943 0086 FFF7FEFF 		bl	writePacket
 1944              	.LVL169:
 412:Core/Src/peripherals.c ****         //printf("%i 0x%04x, total energy used: %.05f mAh\n", bmicPacket.len, acc, mah);
 413:Core/Src/peripherals.c ****         lastAcc = acc;
 1945              		.loc 1 413 9 view .LVU508
 1946              		.loc 1 413 17 is_stmt 0 view .LVU509
 1947 008a 174B     		ldr	r3, .L125+4
 1948 008c 1C80     		strh	r4, [r3]	@ movhi
 1949              	.LVL170:
 1950              	.L113:
 1951              		.loc 1 413 17 view .LVU510
 1952              	.LBE29:
 414:Core/Src/peripherals.c ****         //printf("bmic status: 0x%02x\n", status);
 415:Core/Src/peripherals.c ****     } else {
 416:Core/Src/peripherals.c ****         printf("Failed to read BMIC: status %i\n", hi2c1.ErrorCode);
 417:Core/Src/peripherals.c ****         HAL_I2C_DeInit(&hi2c1);
ARM GAS  /var/folders/gv/t2w3mcd17yl2fynvjl120d0m0000gn/T//ccUzLJxe.s 			page 48


 418:Core/Src/peripherals.c ****         HAL_Delay(5);
 419:Core/Src/peripherals.c ****         HAL_I2C_Init(&hi2c1);
 420:Core/Src/peripherals.c ****         return;
 421:Core/Src/peripherals.c ****     }
 422:Core/Src/peripherals.c **** }
 1953              		.loc 1 422 1 view .LVU511
 1954 008e 0AB0     		add	sp, sp, #40
 1955              	.LCFI35:
 1956              		.cfi_remember_state
 1957              		.cfi_def_cfa_offset 16
 1958              		@ sp needed
 1959 0090 70BD     		pop	{r4, r5, r6, pc}
 1960              	.LVL171:
 1961              	.L122:
 1962              	.LCFI36:
 1963              		.cfi_restore_state
 1964              	.LBB30:
 388:Core/Src/peripherals.c ****             return;
 1965              		.loc 1 388 13 is_stmt 1 view .LVU512
 1966 0092 1948     		ldr	r0, .L125+20
 1967              	.LVL172:
 388:Core/Src/peripherals.c ****             return;
 1968              		.loc 1 388 13 is_stmt 0 view .LVU513
 1969 0094 FFF7FEFF 		bl	puts
 1970              	.LVL173:
 389:Core/Src/peripherals.c ****         }
 1971              		.loc 1 389 13 is_stmt 1 view .LVU514
 1972 0098 F9E7     		b	.L113
 1973              	.LVL174:
 1974              	.L123:
 393:Core/Src/peripherals.c ****             return;
 1975              		.loc 1 393 13 view .LVU515
 1976 009a 1848     		ldr	r0, .L125+24
 1977              	.LVL175:
 393:Core/Src/peripherals.c ****             return;
 1978              		.loc 1 393 13 is_stmt 0 view .LVU516
 1979 009c FFF7FEFF 		bl	puts
 1980              	.LVL176:
 394:Core/Src/peripherals.c ****         }
 1981              		.loc 1 394 13 is_stmt 1 view .LVU517
 1982 00a0 F5E7     		b	.L113
 1983              	.L124:
 398:Core/Src/peripherals.c ****             Write_I2C_Reg(bmicAddr, 2, (uint8_t)(acc >> 8), 1);
 1984              		.loc 1 398 13 view .LVU518
 398:Core/Src/peripherals.c ****             Write_I2C_Reg(bmicAddr, 2, (uint8_t)(acc >> 8), 1);
 1985              		.loc 1 398 17 is_stmt 0 view .LVU519
 1986 00a2 04F5FF42 		add	r2, r4, #32640
 1987 00a6 7F32     		adds	r2, r2, #127
 1988 00a8 94B2     		uxth	r4, r2
 1989              	.LVL177:
 399:Core/Src/peripherals.c ****             Write_I2C_Reg(bmicAddr, 3, (uint8_t)(acc & 0xff), 1);
 1990              		.loc 1 399 13 is_stmt 1 view .LVU520
 1991 00aa 0123     		movs	r3, #1
 1992 00ac C2F30722 		ubfx	r2, r2, #8, #8
 1993 00b0 0221     		movs	r1, #2
 1994 00b2 6420     		movs	r0, #100
 1995 00b4 FFF7FEFF 		bl	Write_I2C_Reg
ARM GAS  /var/folders/gv/t2w3mcd17yl2fynvjl120d0m0000gn/T//ccUzLJxe.s 			page 49


 1996              	.LVL178:
 400:Core/Src/peripherals.c ****         }
 1997              		.loc 1 400 13 view .LVU521
 1998 00b8 0123     		movs	r3, #1
 1999 00ba E2B2     		uxtb	r2, r4
 2000 00bc 0321     		movs	r1, #3
 2001 00be 6420     		movs	r0, #100
 2002 00c0 FFF7FEFF 		bl	Write_I2C_Reg
 2003              	.LVL179:
 2004 00c4 C2E7     		b	.L118
 2005              	.LVL180:
 2006              	.L114:
 400:Core/Src/peripherals.c ****         }
 2007              		.loc 1 400 13 is_stmt 0 view .LVU522
 2008              	.LBE30:
 416:Core/Src/peripherals.c ****         HAL_I2C_DeInit(&hi2c1);
 2009              		.loc 1 416 9 is_stmt 1 view .LVU523
 416:Core/Src/peripherals.c ****         HAL_I2C_DeInit(&hi2c1);
 2010              		.loc 1 416 57 is_stmt 0 view .LVU524
 2011 00c6 074C     		ldr	r4, .L125
 2012 00c8 616C     		ldr	r1, [r4, #68]
 416:Core/Src/peripherals.c ****         HAL_I2C_DeInit(&hi2c1);
 2013              		.loc 1 416 9 view .LVU525
 2014 00ca 0D48     		ldr	r0, .L125+28
 2015              	.LVL181:
 416:Core/Src/peripherals.c ****         HAL_I2C_DeInit(&hi2c1);
 2016              		.loc 1 416 9 view .LVU526
 2017 00cc FFF7FEFF 		bl	printf
 2018              	.LVL182:
 417:Core/Src/peripherals.c ****         HAL_Delay(5);
 2019              		.loc 1 417 9 is_stmt 1 view .LVU527
 2020 00d0 2046     		mov	r0, r4
 2021 00d2 FFF7FEFF 		bl	HAL_I2C_DeInit
 2022              	.LVL183:
 418:Core/Src/peripherals.c ****         HAL_I2C_Init(&hi2c1);
 2023              		.loc 1 418 9 view .LVU528
 2024 00d6 0520     		movs	r0, #5
 2025 00d8 FFF7FEFF 		bl	HAL_Delay
 2026              	.LVL184:
 419:Core/Src/peripherals.c ****         return;
 2027              		.loc 1 419 9 view .LVU529
 2028 00dc 2046     		mov	r0, r4
 2029 00de FFF7FEFF 		bl	HAL_I2C_Init
 2030              	.LVL185:
 420:Core/Src/peripherals.c ****     }
 2031              		.loc 1 420 9 view .LVU530
 2032 00e2 D4E7     		b	.L113
 2033              	.L126:
 2034              		.align	2
 2035              	.L125:
 2036 00e4 00000000 		.word	hi2c1
 2037 00e8 00000000 		.word	lastAcc
 2038 00ec 1C000000 		.word	.LC21
 2039 00f0 00000000 		.word	totalEnergyUsed
 2040 00f4 00000000 		.word	startTime
 2041 00f8 00000000 		.word	.LC19
 2042 00fc 10000000 		.word	.LC20
ARM GAS  /var/folders/gv/t2w3mcd17yl2fynvjl120d0m0000gn/T//ccUzLJxe.s 			page 50


 2043 0100 2C000000 		.word	.LC22
 2044              		.cfi_endproc
 2045              	.LFE247:
 2047              		.section	.rodata.setupAccSleep.str1.4,"aMS",%progbits,1
 2048              		.align	2
 2049              	.LC23:
 2050 0000 4C4F473A 		.ascii	"LOG: Configuring accelerometer for sleep\015\012\000"
 2050      20436F6E 
 2050      66696775 
 2050      72696E67 
 2050      20616363 
 2051 002b 00       		.align	2
 2052              	.LC24:
 2053 002c 4C4F473A 		.ascii	"LOG: successfully configured accelerometer.\015\012"
 2053      20737563 
 2053      63657373 
 2053      66756C6C 
 2053      7920636F 
 2054 0059 00       		.ascii	"\000"
 2055              		.section	.text.setupAccSleep,"ax",%progbits
 2056              		.align	1
 2057              		.global	setupAccSleep
 2058              		.syntax unified
 2059              		.thumb
 2060              		.thumb_func
 2062              	setupAccSleep:
 2063              	.LFB248:
 423:Core/Src/peripherals.c **** 
 424:Core/Src/peripherals.c **** void setupAccSleep() {
 2064              		.loc 1 424 22 view -0
 2065              		.cfi_startproc
 2066              		@ args = 0, pretend = 0, frame = 0
 2067              		@ frame_needed = 0, uses_anonymous_args = 0
 2068 0000 08B5     		push	{r3, lr}
 2069              	.LCFI37:
 2070              		.cfi_def_cfa_offset 8
 2071              		.cfi_offset 3, -8
 2072              		.cfi_offset 14, -4
 425:Core/Src/peripherals.c **** 	//setup accelerometer for generating interrupts on movement
 426:Core/Src/peripherals.c **** 	log_printf("LOG: Configuring accelerometer for sleep\r\n");
 2073              		.loc 1 426 2 view .LVU532
 2074 0002 2048     		ldr	r0, .L129
 2075 0004 FFF7FEFF 		bl	log_printf
 2076              	.LVL186:
 427:Core/Src/peripherals.c **** 	uint8_t ACC_ADDR = 0b0011000;
 2077              		.loc 1 427 2 view .LVU533
 428:Core/Src/peripherals.c **** 	uint8_t x_reg = 0x28;
 2078              		.loc 1 428 2 view .LVU534
 429:Core/Src/peripherals.c **** 	uint8_t y_reg = 0x2A;
 2079              		.loc 1 429 2 view .LVU535
 430:Core/Src/peripherals.c **** 	uint8_t z_reg = 0x2C;
 2080              		.loc 1 430 2 view .LVU536
 431:Core/Src/peripherals.c **** 
 432:Core/Src/peripherals.c **** 	uint8_t CTRL_REG1 = 0x20;
 2081              		.loc 1 432 2 view .LVU537
 433:Core/Src/peripherals.c **** 	uint8_t CTRL_REG2 = 0x21;
 2082              		.loc 1 433 2 view .LVU538
ARM GAS  /var/folders/gv/t2w3mcd17yl2fynvjl120d0m0000gn/T//ccUzLJxe.s 			page 51


 434:Core/Src/peripherals.c **** 	uint8_t CTRL_REG3 = 0x22;
 2083              		.loc 1 434 2 view .LVU539
 435:Core/Src/peripherals.c **** 	uint8_t CTRL_REG4 = 0x23;
 2084              		.loc 1 435 2 view .LVU540
 436:Core/Src/peripherals.c **** 	uint8_t CTRL_REG5 = 0x24;
 2085              		.loc 1 436 2 view .LVU541
 437:Core/Src/peripherals.c **** 	uint8_t INT1_THS = 0x32;
 2086              		.loc 1 437 2 view .LVU542
 438:Core/Src/peripherals.c **** 	uint8_t INT1_DURATION = 0x33;
 2087              		.loc 1 438 2 view .LVU543
 439:Core/Src/peripherals.c **** 	uint8_t INT1_CFG = 0x30;
 2088              		.loc 1 439 2 view .LVU544
 440:Core/Src/peripherals.c **** 	uint8_t REFERENCE = 0x26;
 2089              		.loc 1 440 2 view .LVU545
 441:Core/Src/peripherals.c **** 
 442:Core/Src/peripherals.c ****     uint8_t INT1_SRC = 0x31;
 2090              		.loc 1 442 5 view .LVU546
 443:Core/Src/peripherals.c **** 
 444:Core/Src/peripherals.c **** 	//set 100 Hz low-power mode
 445:Core/Src/peripherals.c **** 	Write_I2C_Reg(ACC_ADDR, CTRL_REG1, 0b01011111,1);
 2091              		.loc 1 445 2 view .LVU547
 2092 0008 0123     		movs	r3, #1
 2093 000a 5F22     		movs	r2, #95
 2094 000c 2021     		movs	r1, #32
 2095 000e 1820     		movs	r0, #24
 2096 0010 FFF7FEFF 		bl	Write_I2C_Reg
 2097              	.LVL187:
 446:Core/Src/peripherals.c **** 	// use high pass filter
 447:Core/Src/peripherals.c **** 	Write_I2C_Reg(ACC_ADDR, CTRL_REG2, 0b00001001,1);
 2098              		.loc 1 447 2 view .LVU548
 2099 0014 0123     		movs	r3, #1
 2100 0016 0922     		movs	r2, #9
 2101 0018 2121     		movs	r1, #33
 2102 001a 1820     		movs	r0, #24
 2103 001c FFF7FEFF 		bl	Write_I2C_Reg
 2104              	.LVL188:
 448:Core/Src/peripherals.c **** 	//enable interrupt 1
 449:Core/Src/peripherals.c **** 	Write_I2C_Reg(ACC_ADDR, CTRL_REG3, 0b01000000,1);
 2105              		.loc 1 449 2 view .LVU549
 2106 0020 0123     		movs	r3, #1
 2107 0022 4022     		movs	r2, #64
 2108 0024 2221     		movs	r1, #34
 2109 0026 1820     		movs	r0, #24
 2110 0028 FFF7FEFF 		bl	Write_I2C_Reg
 2111              	.LVL189:
 450:Core/Src/peripherals.c **** 	// set +-2g range
 451:Core/Src/peripherals.c **** 	Write_I2C_Reg(ACC_ADDR, CTRL_REG4, 0b00000000,1);
 2112              		.loc 1 451 2 view .LVU550
 2113 002c 0123     		movs	r3, #1
 2114 002e 0022     		movs	r2, #0
 2115 0030 2321     		movs	r1, #35
 2116 0032 1820     		movs	r0, #24
 2117 0034 FFF7FEFF 		bl	Write_I2C_Reg
 2118              	.LVL190:
 452:Core/Src/peripherals.c **** 	// latch interrupt 1
 453:Core/Src/peripherals.c **** 	Write_I2C_Reg(ACC_ADDR, CTRL_REG5, 0b00001000,1);
 2119              		.loc 1 453 2 view .LVU551
ARM GAS  /var/folders/gv/t2w3mcd17yl2fynvjl120d0m0000gn/T//ccUzLJxe.s 			page 52


 2120 0038 0123     		movs	r3, #1
 2121 003a 0822     		movs	r2, #8
 2122 003c 2421     		movs	r1, #36
 2123 003e 1820     		movs	r0, #24
 2124 0040 FFF7FEFF 		bl	Write_I2C_Reg
 2125              	.LVL191:
 454:Core/Src/peripherals.c **** 	// set 384 mg threshold on interrupt
 455:Core/Src/peripherals.c **** 	Write_I2C_Reg(ACC_ADDR, INT1_THS, 0b00011000,1);
 2126              		.loc 1 455 2 view .LVU552
 2127 0044 0123     		movs	r3, #1
 2128 0046 1822     		movs	r2, #24
 2129 0048 3221     		movs	r1, #50
 2130 004a 1046     		mov	r0, r2
 2131 004c FFF7FEFF 		bl	Write_I2C_Reg
 2132              	.LVL192:
 456:Core/Src/peripherals.c **** 	//set 20 ms duration before interrupt is recognized
 457:Core/Src/peripherals.c **** 	Write_I2C_Reg(ACC_ADDR, INT1_DURATION, 0b00000010,1);
 2133              		.loc 1 457 2 view .LVU553
 2134 0050 0123     		movs	r3, #1
 2135 0052 0222     		movs	r2, #2
 2136 0054 3321     		movs	r1, #51
 2137 0056 1820     		movs	r0, #24
 2138 0058 FFF7FEFF 		bl	Write_I2C_Reg
 2139              	.LVL193:
 458:Core/Src/peripherals.c **** 
 459:Core/Src/peripherals.c **** 	uint8_t ref = Read_I2C_Reg(ACC_ADDR, REFERENCE,1);
 2140              		.loc 1 459 2 view .LVU554
 2141              		.loc 1 459 16 is_stmt 0 view .LVU555
 2142 005c 0122     		movs	r2, #1
 2143 005e 2621     		movs	r1, #38
 2144 0060 1820     		movs	r0, #24
 2145 0062 FFF7FEFF 		bl	Read_I2C_Reg
 2146              	.LVL194:
 460:Core/Src/peripherals.c **** 
 461:Core/Src/peripherals.c **** 	//generate interrupt on high events of x, y, or z
 462:Core/Src/peripherals.c **** 	Write_I2C_Reg(ACC_ADDR, INT1_CFG, 0b00101010,1);
 2147              		.loc 1 462 2 is_stmt 1 view .LVU556
 2148 0066 0123     		movs	r3, #1
 2149 0068 2A22     		movs	r2, #42
 2150 006a 3021     		movs	r1, #48
 2151 006c 1820     		movs	r0, #24
 2152 006e FFF7FEFF 		bl	Write_I2C_Reg
 2153              	.LVL195:
 463:Core/Src/peripherals.c **** 
 464:Core/Src/peripherals.c ****     uint8_t clear_latch = Read_I2C_Reg(ACC_ADDR, INT1_SRC, 1);
 2154              		.loc 1 464 5 view .LVU557
 2155              		.loc 1 464 27 is_stmt 0 view .LVU558
 2156 0072 0122     		movs	r2, #1
 2157 0074 3121     		movs	r1, #49
 2158 0076 1820     		movs	r0, #24
 2159 0078 FFF7FEFF 		bl	Read_I2C_Reg
 2160              	.LVL196:
 465:Core/Src/peripherals.c **** 	log_printf("LOG: successfully configured accelerometer.\r\n");
 2161              		.loc 1 465 2 is_stmt 1 view .LVU559
 2162 007c 0248     		ldr	r0, .L129+4
 2163 007e FFF7FEFF 		bl	log_printf
 2164              	.LVL197:
ARM GAS  /var/folders/gv/t2w3mcd17yl2fynvjl120d0m0000gn/T//ccUzLJxe.s 			page 53


 466:Core/Src/peripherals.c **** }
 2165              		.loc 1 466 1 is_stmt 0 view .LVU560
 2166 0082 08BD     		pop	{r3, pc}
 2167              	.L130:
 2168              		.align	2
 2169              	.L129:
 2170 0084 00000000 		.word	.LC23
 2171 0088 2C000000 		.word	.LC24
 2172              		.cfi_endproc
 2173              	.LFE248:
 2175              		.section	.text.setupAccWake,"ax",%progbits
 2176              		.align	1
 2177              		.global	setupAccWake
 2178              		.syntax unified
 2179              		.thumb
 2180              		.thumb_func
 2182              	setupAccWake:
 2183              	.LFB249:
 467:Core/Src/peripherals.c **** 
 468:Core/Src/peripherals.c **** void setupAccWake() {
 2184              		.loc 1 468 21 is_stmt 1 view -0
 2185              		.cfi_startproc
 2186              		@ args = 0, pretend = 0, frame = 0
 2187              		@ frame_needed = 0, uses_anonymous_args = 0
 2188 0000 08B5     		push	{r3, lr}
 2189              	.LCFI38:
 2190              		.cfi_def_cfa_offset 8
 2191              		.cfi_offset 3, -8
 2192              		.cfi_offset 14, -4
 469:Core/Src/peripherals.c **** 	//setup accelerometer for generating interrupts on movement
 470:Core/Src/peripherals.c **** 	uint8_t ACC_ADDR = 0b0011000;
 2193              		.loc 1 470 2 view .LVU562
 2194              	.LVL198:
 471:Core/Src/peripherals.c **** 	uint8_t x_reg = 0x28;
 2195              		.loc 1 471 2 view .LVU563
 472:Core/Src/peripherals.c **** 	uint8_t y_reg = 0x2A;
 2196              		.loc 1 472 2 view .LVU564
 473:Core/Src/peripherals.c **** 	uint8_t z_reg = 0x2C;
 2197              		.loc 1 473 2 view .LVU565
 474:Core/Src/peripherals.c **** 
 475:Core/Src/peripherals.c **** 	uint8_t CTRL_REG1 = 0x20;
 2198              		.loc 1 475 2 view .LVU566
 476:Core/Src/peripherals.c **** 	uint8_t CTRL_REG2 = 0x21;
 2199              		.loc 1 476 2 view .LVU567
 477:Core/Src/peripherals.c **** 	uint8_t CTRL_REG3 = 0x22;
 2200              		.loc 1 477 2 view .LVU568
 478:Core/Src/peripherals.c **** 	uint8_t CTRL_REG4 = 0x23;
 2201              		.loc 1 478 2 view .LVU569
 479:Core/Src/peripherals.c **** 	uint8_t CTRL_REG5 = 0x24;
 2202              		.loc 1 479 2 view .LVU570
 480:Core/Src/peripherals.c **** 
 481:Core/Src/peripherals.c **** 	uint8_t INT1_CFG = 0x30;
 2203              		.loc 1 481 2 view .LVU571
 482:Core/Src/peripherals.c **** 	uint8_t INT1_SRC = 0x31;
 2204              		.loc 1 482 2 view .LVU572
 483:Core/Src/peripherals.c **** 
 484:Core/Src/peripherals.c **** 	//read interrupt res to clear it
ARM GAS  /var/folders/gv/t2w3mcd17yl2fynvjl120d0m0000gn/T//ccUzLJxe.s 			page 54


 485:Core/Src/peripherals.c **** 	uint8_t int_event = Read_I2C_Reg(ACC_ADDR, INT1_SRC, 1);
 2205              		.loc 1 485 2 view .LVU573
 2206              		.loc 1 485 22 is_stmt 0 view .LVU574
 2207 0002 0122     		movs	r2, #1
 2208 0004 3121     		movs	r1, #49
 2209 0006 1820     		movs	r0, #24
 2210 0008 FFF7FEFF 		bl	Read_I2C_Reg
 2211              	.LVL199:
 486:Core/Src/peripherals.c **** 
 487:Core/Src/peripherals.c **** 	//low-power 1 Hz
 488:Core/Src/peripherals.c **** 	Write_I2C_Reg(ACC_ADDR, CTRL_REG1, 0b00011111,1);
 2212              		.loc 1 488 2 is_stmt 1 view .LVU575
 2213 000c 0123     		movs	r3, #1
 2214 000e 1F22     		movs	r2, #31
 2215 0010 2021     		movs	r1, #32
 2216 0012 1820     		movs	r0, #24
 2217 0014 FFF7FEFF 		bl	Write_I2C_Reg
 2218              	.LVL200:
 489:Core/Src/peripherals.c **** 	//no filters
 490:Core/Src/peripherals.c **** 	Write_I2C_Reg(ACC_ADDR, CTRL_REG2, 0b00000000,1);
 2219              		.loc 1 490 2 view .LVU576
 2220 0018 0123     		movs	r3, #1
 2221 001a 0022     		movs	r2, #0
 2222 001c 2121     		movs	r1, #33
 2223 001e 1820     		movs	r0, #24
 2224 0020 FFF7FEFF 		bl	Write_I2C_Reg
 2225              	.LVL201:
 491:Core/Src/peripherals.c **** 	//disable interrupts
 492:Core/Src/peripherals.c **** 	Write_I2C_Reg(ACC_ADDR, CTRL_REG3, 0b00000000,1);
 2226              		.loc 1 492 2 view .LVU577
 2227 0024 0123     		movs	r3, #1
 2228 0026 0022     		movs	r2, #0
 2229 0028 2221     		movs	r1, #34
 2230 002a 1820     		movs	r0, #24
 2231 002c FFF7FEFF 		bl	Write_I2C_Reg
 2232              	.LVL202:
 493:Core/Src/peripherals.c **** 	//+-4g range
 494:Core/Src/peripherals.c **** 	Write_I2C_Reg(ACC_ADDR, CTRL_REG4, 0b00001000,1);
 2233              		.loc 1 494 2 view .LVU578
 2234 0030 0123     		movs	r3, #1
 2235 0032 0822     		movs	r2, #8
 2236 0034 2321     		movs	r1, #35
 2237 0036 1820     		movs	r0, #24
 2238 0038 FFF7FEFF 		bl	Write_I2C_Reg
 2239              	.LVL203:
 495:Core/Src/peripherals.c **** 	//no interrupt functions
 496:Core/Src/peripherals.c **** 	Write_I2C_Reg(ACC_ADDR, CTRL_REG5, 0b00000000,1);
 2240              		.loc 1 496 2 view .LVU579
 2241 003c 0123     		movs	r3, #1
 2242 003e 0022     		movs	r2, #0
 2243 0040 2421     		movs	r1, #36
 2244 0042 1820     		movs	r0, #24
 2245 0044 FFF7FEFF 		bl	Write_I2C_Reg
 2246              	.LVL204:
 497:Core/Src/peripherals.c **** 
 498:Core/Src/peripherals.c **** 	//disable interrupts on high events of x, y, or z
 499:Core/Src/peripherals.c **** 	Write_I2C_Reg(ACC_ADDR, INT1_CFG, 0b00000000,1);
ARM GAS  /var/folders/gv/t2w3mcd17yl2fynvjl120d0m0000gn/T//ccUzLJxe.s 			page 55


 2247              		.loc 1 499 2 view .LVU580
 2248 0048 0123     		movs	r3, #1
 2249 004a 0022     		movs	r2, #0
 2250 004c 3021     		movs	r1, #48
 2251 004e 1820     		movs	r0, #24
 2252 0050 FFF7FEFF 		bl	Write_I2C_Reg
 2253              	.LVL205:
 500:Core/Src/peripherals.c **** 
 501:Core/Src/peripherals.c **** }
 2254              		.loc 1 501 1 is_stmt 0 view .LVU581
 2255 0054 08BD     		pop	{r3, pc}
 2256              		.cfi_endproc
 2257              	.LFE249:
 2259              		.section	.text.sensors_off,"ax",%progbits
 2260              		.align	1
 2261              		.global	sensors_off
 2262              		.syntax unified
 2263              		.thumb
 2264              		.thumb_func
 2266              	sensors_off:
 2267              	.LFB251:
 502:Core/Src/peripherals.c **** 
 503:Core/Src/peripherals.c **** void tag_sleep() {
 504:Core/Src/peripherals.c ****     printf("starting sleep process...\n");
 505:Core/Src/peripherals.c ****     setupAccSleep();
 506:Core/Src/peripherals.c **** 
 507:Core/Src/peripherals.c ****     uint8_t sleep = 0;
 508:Core/Src/peripherals.c **** 
 509:Core/Src/peripherals.c ****     // Put PA9 (USART1_TX) into high-Z so it doesn't source/sink current
 510:Core/Src/peripherals.c ****     // or float into the UART peripheral while we're powered down.
 511:Core/Src/peripherals.c **** 
 512:Core/Src/peripherals.c ****     packet sleepPack = {0};
 513:Core/Src/peripherals.c ****     sleepPack.type = PACKET_WAKE;
 514:Core/Src/peripherals.c ****     sleepPack.timestamp = HAL_GetTick() - startTime;
 515:Core/Src/peripherals.c ****     sleepPack.rtcTimestamp = rtcElapsed();
 516:Core/Src/peripherals.c ****     sleepPack.len = 1;
 517:Core/Src/peripherals.c ****     sleepPack.payload = &sleep;
 518:Core/Src/peripherals.c ****     writePacket(sleepPack);
 519:Core/Src/peripherals.c **** 
 520:Core/Src/peripherals.c ****     // Don't disarm the FIFO accel's wake-capable EXTI while it's unpowered
 521:Core/Src/peripherals.c ****     HAL_NVIC_DisableIRQ(EXTI1_IRQn);
 522:Core/Src/peripherals.c ****     printf("sleeping...\n");
 523:Core/Src/peripherals.c ****     sensors_off();
 524:Core/Src/peripherals.c **** 
 525:Core/Src/peripherals.c ****     // Arm the wake source and enter STOP2 atomically, right next to each other
 526:Core/Src/peripherals.c ****     __disable_irq();
 527:Core/Src/peripherals.c ****     __HAL_GPIO_EXTI_CLEAR_IT(Acc_Int_Pin);
 528:Core/Src/peripherals.c ****     HAL_SuspendTick();
 529:Core/Src/peripherals.c ****     __enable_irq();                 // pending-IRQ check at WFI still wakes correctly
 530:Core/Src/peripherals.c ****     HAL_PWREx_EnterSTOP2Mode(PWR_STOPENTRY_WFI);
 531:Core/Src/peripherals.c ****     // resumes here on wake
 532:Core/Src/peripherals.c ****     HAL_ResumeTick();
 533:Core/Src/peripherals.c ****     sensors_on();
 534:Core/Src/peripherals.c **** 
 535:Core/Src/peripherals.c ****     SystemClock_Config();
 536:Core/Src/peripherals.c ****     HAL_I2C_MspInit(&hi2c1);
 537:Core/Src/peripherals.c ****     HAL_I2C_MspInit(&hi2c2);
ARM GAS  /var/folders/gv/t2w3mcd17yl2fynvjl120d0m0000gn/T//ccUzLJxe.s 			page 56


 538:Core/Src/peripherals.c ****     HAL_SD_MspInit(&hsd1);
 539:Core/Src/peripherals.c ****     HAL_UART_MspInit(&huart1);
 540:Core/Src/peripherals.c ****     HAL_NVIC_EnableIRQ(EXTI1_IRQn);
 541:Core/Src/peripherals.c **** 
 542:Core/Src/peripherals.c ****     // Restore PA9 to USART1_RX alternate-function mode before re-enabling
 543:Core/Src/peripherals.c ****     // the USART1 IRQ. HAL_UART_MspInit() above should already do this if
 544:Core/Src/peripherals.c ****     // it's the CubeMX-generated version — but set it explicitly so we're
 545:Core/Src/peripherals.c ****     // not relying on that assumption.
 546:Core/Src/peripherals.c ****     /*GPIO_InitStruct.Pin       = GPIO_PIN_9;
 547:Core/Src/peripherals.c ****     GPIO_InitStruct.Mode      = GPIO_MODE_AF_PP;
 548:Core/Src/peripherals.c ****     GPIO_InitStruct.Pull      = GPIO_NOPULL;
 549:Core/Src/peripherals.c ****     GPIO_InitStruct.Speed     = GPIO_SPEED_FREQ_VERY_HIGH;
 550:Core/Src/peripherals.c ****     GPIO_InitStruct.Alternate = GPIO_AF7_USART1;
 551:Core/Src/peripherals.c ****     HAL_GPIO_Init(GPIOA, &GPIO_InitStruct);*/
 552:Core/Src/peripherals.c **** 
 553:Core/Src/peripherals.c ****     // reenable interrupts from BMI270 IMU
 554:Core/Src/peripherals.c **** 
 555:Core/Src/peripherals.c ****     uint32_t start = HAL_GetTick();
 556:Core/Src/peripherals.c ****     printf("SD mount: %p\r\n",&SDFatFS);
 557:Core/Src/peripherals.c ****     
 558:Core/Src/peripherals.c ****     printf("wakeup!\n");
 559:Core/Src/peripherals.c **** 
 560:Core/Src/peripherals.c **** 
 561:Core/Src/peripherals.c ****     setupAccWake();
 562:Core/Src/peripherals.c ****     int res = initBMI270();
 563:Core/Src/peripherals.c ****     while (res == -2) { 
 564:Core/Src/peripherals.c ****         HAL_Delay(2000); 
 565:Core/Src/peripherals.c ****         HAL_I2C_DeInit(&hi2c2);
 566:Core/Src/peripherals.c ****         HAL_Delay(5);
 567:Core/Src/peripherals.c ****         HAL_I2C_Init(&hi2c2);
 568:Core/Src/peripherals.c ****         res = initBMI270();
 569:Core/Src/peripherals.c ****     }
 570:Core/Src/peripherals.c **** 
 571:Core/Src/peripherals.c ****     if (res != 0) Error_Handler();
 572:Core/Src/peripherals.c ****     initTMP();
 573:Core/Src/peripherals.c ****     printf("TMP/PRS initialization successful!\n");
 574:Core/Src/peripherals.c ****     initBMIC();
 575:Core/Src/peripherals.c ****     GPS_Start();
 576:Core/Src/peripherals.c ****     
 577:Core/Src/peripherals.c ****     startTime = HAL_GetTick();
 578:Core/Src/peripherals.c ****     sleep = 1;
 579:Core/Src/peripherals.c ****     packet wakePack = {0};
 580:Core/Src/peripherals.c ****     wakePack.type = PACKET_WAKE;
 581:Core/Src/peripherals.c ****     wakePack.timestamp = HAL_GetTick() - startTime;
 582:Core/Src/peripherals.c ****     wakePack.rtcTimestamp = rtcElapsed();
 583:Core/Src/peripherals.c ****     wakePack.len = 1;
 584:Core/Src/peripherals.c ****     wakePack.payload = &sleep;
 585:Core/Src/peripherals.c ****     writePacket(wakePack);
 586:Core/Src/peripherals.c **** }
 587:Core/Src/peripherals.c **** 
 588:Core/Src/peripherals.c **** void sensors_off() {
 2268              		.loc 1 588 20 is_stmt 1 view -0
 2269              		.cfi_startproc
 2270              		@ args = 0, pretend = 0, frame = 24
 2271              		@ frame_needed = 0, uses_anonymous_args = 0
 2272 0000 00B5     		push	{lr}
 2273              	.LCFI39:
ARM GAS  /var/folders/gv/t2w3mcd17yl2fynvjl120d0m0000gn/T//ccUzLJxe.s 			page 57


 2274              		.cfi_def_cfa_offset 4
 2275              		.cfi_offset 14, -4
 2276 0002 87B0     		sub	sp, sp, #28
 2277              	.LCFI40:
 2278              		.cfi_def_cfa_offset 32
 589:Core/Src/peripherals.c ****     HAL_GPIO_WritePin(Power_Disable_GPIO_Port, Power_Disable_Pin, GPIO_PIN_SET);
 2279              		.loc 1 589 5 view .LVU583
 2280 0004 0122     		movs	r2, #1
 2281 0006 0221     		movs	r1, #2
 2282 0008 4FF09040 		mov	r0, #1207959552
 2283 000c FFF7FEFF 		bl	HAL_GPIO_WritePin
 2284              	.LVL206:
 590:Core/Src/peripherals.c ****     GPIO_InitTypeDef GPIO_InitStruct = {0};
 2285              		.loc 1 590 5 view .LVU584
 2286              		.loc 1 590 22 is_stmt 0 view .LVU585
 2287 0010 01A9     		add	r1, sp, #4
 2288 0012 0023     		movs	r3, #0
 2289 0014 0193     		str	r3, [sp, #4]
 2290 0016 4B60     		str	r3, [r1, #4]
 2291 0018 8B60     		str	r3, [r1, #8]
 2292 001a CB60     		str	r3, [r1, #12]
 2293 001c 0B61     		str	r3, [r1, #16]
 591:Core/Src/peripherals.c ****     GPIO_InitStruct.Pin = GPIO_PIN_9;
 2294              		.loc 1 591 5 is_stmt 1 view .LVU586
 2295              		.loc 1 591 25 is_stmt 0 view .LVU587
 2296 001e 4FF40073 		mov	r3, #512
 2297 0022 0193     		str	r3, [sp, #4]
 592:Core/Src/peripherals.c ****     GPIO_InitStruct.Mode = GPIO_MODE_ANALOG;
 2298              		.loc 1 592 5 is_stmt 1 view .LVU588
 2299              		.loc 1 592 26 is_stmt 0 view .LVU589
 2300 0024 0323     		movs	r3, #3
 2301 0026 0293     		str	r3, [sp, #8]
 593:Core/Src/peripherals.c ****     GPIO_InitStruct.Pull = GPIO_NOPULL;
 2302              		.loc 1 593 5 is_stmt 1 view .LVU590
 594:Core/Src/peripherals.c ****     HAL_GPIO_Init(GPIOA, &GPIO_InitStruct);
 2303              		.loc 1 594 5 view .LVU591
 2304 0028 4FF09040 		mov	r0, #1207959552
 2305 002c FFF7FEFF 		bl	HAL_GPIO_Init
 2306              	.LVL207:
 595:Core/Src/peripherals.c **** 
 596:Core/Src/peripherals.c **** }
 2307              		.loc 1 596 1 is_stmt 0 view .LVU592
 2308 0030 07B0     		add	sp, sp, #28
 2309              	.LCFI41:
 2310              		.cfi_def_cfa_offset 4
 2311              		@ sp needed
 2312 0032 00BD     		pop	{pc}
 2313              		.cfi_endproc
 2314              	.LFE251:
 2316              		.section	.text.sensors_on,"ax",%progbits
 2317              		.align	1
 2318              		.global	sensors_on
 2319              		.syntax unified
 2320              		.thumb
 2321              		.thumb_func
 2323              	sensors_on:
 2324              	.LFB252:
ARM GAS  /var/folders/gv/t2w3mcd17yl2fynvjl120d0m0000gn/T//ccUzLJxe.s 			page 58


 597:Core/Src/peripherals.c **** 
 598:Core/Src/peripherals.c **** void sensors_on() {
 2325              		.loc 1 598 19 is_stmt 1 view -0
 2326              		.cfi_startproc
 2327              		@ args = 0, pretend = 0, frame = 24
 2328              		@ frame_needed = 0, uses_anonymous_args = 0
 2329 0000 30B5     		push	{r4, r5, lr}
 2330              	.LCFI42:
 2331              		.cfi_def_cfa_offset 12
 2332              		.cfi_offset 4, -12
 2333              		.cfi_offset 5, -8
 2334              		.cfi_offset 14, -4
 2335 0002 87B0     		sub	sp, sp, #28
 2336              	.LCFI43:
 2337              		.cfi_def_cfa_offset 40
 599:Core/Src/peripherals.c ****     GPIO_InitTypeDef GPIO_InitStruct2 = {0};
 2338              		.loc 1 599 5 view .LVU594
 2339              		.loc 1 599 22 is_stmt 0 view .LVU595
 2340 0004 01A9     		add	r1, sp, #4
 2341 0006 0024     		movs	r4, #0
 2342 0008 0194     		str	r4, [sp, #4]
 2343 000a 4C60     		str	r4, [r1, #4]
 2344 000c 8C60     		str	r4, [r1, #8]
 2345 000e CC60     		str	r4, [r1, #12]
 2346 0010 0C61     		str	r4, [r1, #16]
 600:Core/Src/peripherals.c ****     GPIO_InitStruct2.Pin = GPIO_PIN_9;
 2347              		.loc 1 600 5 is_stmt 1 view .LVU596
 2348              		.loc 1 600 26 is_stmt 0 view .LVU597
 2349 0012 4FF40073 		mov	r3, #512
 2350 0016 0193     		str	r3, [sp, #4]
 601:Core/Src/peripherals.c ****     GPIO_InitStruct2.Mode = GPIO_MODE_AF_PP;
 2351              		.loc 1 601 5 is_stmt 1 view .LVU598
 2352              		.loc 1 601 27 is_stmt 0 view .LVU599
 2353 0018 0225     		movs	r5, #2
 2354 001a 0295     		str	r5, [sp, #8]
 602:Core/Src/peripherals.c ****     GPIO_InitStruct2.Pull = GPIO_NOPULL;
 2355              		.loc 1 602 5 is_stmt 1 view .LVU600
 603:Core/Src/peripherals.c ****     GPIO_InitStruct2.Speed = GPIO_SPEED_FREQ_VERY_HIGH;
 2356              		.loc 1 603 5 view .LVU601
 2357              		.loc 1 603 28 is_stmt 0 view .LVU602
 2358 001c 0323     		movs	r3, #3
 2359 001e 0493     		str	r3, [sp, #16]
 604:Core/Src/peripherals.c ****     GPIO_InitStruct2.Alternate = GPIO_AF7_USART1;
 2360              		.loc 1 604 5 is_stmt 1 view .LVU603
 2361              		.loc 1 604 32 is_stmt 0 view .LVU604
 2362 0020 0723     		movs	r3, #7
 2363 0022 0593     		str	r3, [sp, #20]
 605:Core/Src/peripherals.c ****     HAL_GPIO_Init(GPIOA, &GPIO_InitStruct2); // pin must be reconfigured BEFORE power disable pin i
 2364              		.loc 1 605 5 is_stmt 1 view .LVU605
 2365 0024 4FF09040 		mov	r0, #1207959552
 2366 0028 FFF7FEFF 		bl	HAL_GPIO_Init
 2367              	.LVL208:
 606:Core/Src/peripherals.c ****     HAL_Delay(50);   // power rail settle time
 2368              		.loc 1 606 5 view .LVU606
 2369 002c 3220     		movs	r0, #50
 2370 002e FFF7FEFF 		bl	HAL_Delay
 2371              	.LVL209:
ARM GAS  /var/folders/gv/t2w3mcd17yl2fynvjl120d0m0000gn/T//ccUzLJxe.s 			page 59


 607:Core/Src/peripherals.c ****     HAL_GPIO_WritePin(Power_Disable_GPIO_Port, Power_Disable_Pin, GPIO_PIN_RESET);
 2372              		.loc 1 607 5 view .LVU607
 2373 0032 2246     		mov	r2, r4
 2374 0034 2946     		mov	r1, r5
 2375 0036 4FF09040 		mov	r0, #1207959552
 2376 003a FFF7FEFF 		bl	HAL_GPIO_WritePin
 2377              	.LVL210:
 608:Core/Src/peripherals.c **** }...
 2378              		.loc 1 608 1 is_stmt 0 view .LVU608
 2379 003e 07B0     		add	sp, sp, #28
 2380              	.LCFI44:
 2381              		.cfi_def_cfa_offset 12
 2382              		@ sp needed
 2383 0040 30BD     		pop	{r4, r5, pc}
 2384              		.cfi_endproc
 2385              	.LFE252:
 2387              		.section	.rodata.tag_sleep.str1.4,"aMS",%progbits,1
 2388              		.align	2
 2389              	.LC25:
 2390 0000 73746172 		.ascii	"starting sleep process...\000"
 2390      74696E67 
 2390      20736C65 
 2390      65702070 
 2390      726F6365 
 2391 001a 0000     		.align	2
 2392              	.LC26:
 2393 001c 736C6565 		.ascii	"sleeping...\000"
 2393      70696E67 
 2393      2E2E2E00 
 2394              		.align	2
 2395              	.LC27:
 2396 0028 5344206D 		.ascii	"SD mount: %p\015\012\000"
 2396      6F756E74 
 2396      3A202570 
 2396      0D0A00
 2397 0037 00       		.align	2
 2398              	.LC28:
 2399 0038 77616B65 		.ascii	"wakeup!\000"
 2399      75702100 
 2400              		.align	2
 2401              	.LC29:
 2402 0040 544D502F 		.ascii	"TMP/PRS initialization successful!\000"
 2402      50525320 
 2402      696E6974 
 2402      69616C69 
 2402      7A617469 
 2403              		.section	.text.tag_sleep,"ax",%progbits
 2404              		.align	1
 2405              		.global	tag_sleep
 2406              		.syntax unified
 2407              		.thumb
 2408              		.thumb_func
 2410              	tag_sleep:
 2411              	.LFB250:
 503:Core/Src/peripherals.c **** void tag_sleep() {
 2412              		.loc 1 503 18 is_stmt 1 view -0
 2413              		.cfi_startproc
ARM GAS  /var/folders/gv/t2w3mcd17yl2fynvjl120d0m0000gn/T//ccUzLJxe.s 			page 60


 2414              		@ args = 0, pretend = 0, frame = 48
 2415              		@ frame_needed = 0, uses_anonymous_args = 0
 2416 0000 70B5     		push	{r4, r5, r6, lr}
 2417              	.LCFI45:
 2418              		.cfi_def_cfa_offset 16
 2419              		.cfi_offset 4, -16
 2420              		.cfi_offset 5, -12
 2421              		.cfi_offset 6, -8
 2422              		.cfi_offset 14, -4
 2423 0002 8EB0     		sub	sp, sp, #56
 2424              	.LCFI46:
 2425              		.cfi_def_cfa_offset 72
 504:Core/Src/peripherals.c ****     printf("starting sleep process...\n");
 2426              		.loc 1 504 5 view .LVU610
 2427 0004 4D48     		ldr	r0, .L143
 2428 0006 FFF7FEFF 		bl	puts
 2429              	.LVL211:
 505:Core/Src/peripherals.c ****     setupAccSleep();
 2430              		.loc 1 505 5 view .LVU611
 2431 000a FFF7FEFF 		bl	setupAccSleep
 2432              	.LVL212:
 507:Core/Src/peripherals.c ****     uint8_t sleep = 0;
 2433              		.loc 1 507 5 view .LVU612
 507:Core/Src/peripherals.c ****     uint8_t sleep = 0;
 2434              		.loc 1 507 13 is_stmt 0 view .LVU613
 2435 000e 0023     		movs	r3, #0
 2436 0010 8DF83730 		strb	r3, [sp, #55]
 512:Core/Src/peripherals.c ****     packet sleepPack = {0};
 2437              		.loc 1 512 5 is_stmt 1 view .LVU614
 512:Core/Src/peripherals.c ****     packet sleepPack = {0};
 2438              		.loc 1 512 12 is_stmt 0 view .LVU615
 2439 0014 08AC     		add	r4, sp, #32
 2440 0016 0893     		str	r3, [sp, #32]
 2441 0018 0993     		str	r3, [sp, #36]
 2442 001a 0A93     		str	r3, [sp, #40]
 2443 001c 0B93     		str	r3, [sp, #44]
 2444 001e 0C93     		str	r3, [sp, #48]
 513:Core/Src/peripherals.c ****     sleepPack.type = PACKET_WAKE;
 2445              		.loc 1 513 5 is_stmt 1 view .LVU616
 513:Core/Src/peripherals.c ****     sleepPack.type = PACKET_WAKE;
 2446              		.loc 1 513 20 is_stmt 0 view .LVU617
 2447 0020 0223     		movs	r3, #2
 2448 0022 8DF82030 		strb	r3, [sp, #32]
 514:Core/Src/peripherals.c ****     sleepPack.timestamp = HAL_GetTick() - startTime;
 2449              		.loc 1 514 5 is_stmt 1 view .LVU618
 514:Core/Src/peripherals.c ****     sleepPack.timestamp = HAL_GetTick() - startTime;
 2450              		.loc 1 514 27 is_stmt 0 view .LVU619
 2451 0026 FFF7FEFF 		bl	HAL_GetTick
 2452              	.LVL213:
 514:Core/Src/peripherals.c ****     sleepPack.timestamp = HAL_GetTick() - startTime;
 2453              		.loc 1 514 41 discriminator 1 view .LVU620
 2454 002a 454B     		ldr	r3, .L143+4
 2455 002c 1B68     		ldr	r3, [r3]
 2456 002e C01A     		subs	r0, r0, r3
 514:Core/Src/peripherals.c ****     sleepPack.timestamp = HAL_GetTick() - startTime;
 2457              		.loc 1 514 25 discriminator 1 view .LVU621
 2458 0030 0990     		str	r0, [sp, #36]
ARM GAS  /var/folders/gv/t2w3mcd17yl2fynvjl120d0m0000gn/T//ccUzLJxe.s 			page 61


 515:Core/Src/peripherals.c ****     sleepPack.rtcTimestamp = rtcElapsed();
 2459              		.loc 1 515 5 is_stmt 1 view .LVU622
 515:Core/Src/peripherals.c ****     sleepPack.rtcTimestamp = rtcElapsed();
 2460              		.loc 1 515 30 is_stmt 0 view .LVU623
 2461 0032 FFF7FEFF 		bl	rtcElapsed
 2462              	.LVL214:
 515:Core/Src/peripherals.c ****     sleepPack.rtcTimestamp = rtcElapsed();
 2463              		.loc 1 515 28 discriminator 1 view .LVU624
 2464 0036 0A90     		str	r0, [sp, #40]
 516:Core/Src/peripherals.c ****     sleepPack.len = 1;
 2465              		.loc 1 516 5 is_stmt 1 view .LVU625
 516:Core/Src/peripherals.c ****     sleepPack.len = 1;
 2466              		.loc 1 516 19 is_stmt 0 view .LVU626
 2467 0038 0125     		movs	r5, #1
 2468 003a 0B95     		str	r5, [sp, #44]
 517:Core/Src/peripherals.c ****     sleepPack.payload = &sleep;
 2469              		.loc 1 517 5 is_stmt 1 view .LVU627
 517:Core/Src/peripherals.c ****     sleepPack.payload = &sleep;
 2470              		.loc 1 517 23 is_stmt 0 view .LVU628
 2471 003c 0DF13703 		add	r3, sp, #55
 2472 0040 0C93     		str	r3, [sp, #48]
 518:Core/Src/peripherals.c ****     writePacket(sleepPack);
 2473              		.loc 1 518 5 is_stmt 1 view .LVU629
 2474 0042 0093     		str	r3, [sp]
 2475 0044 94E80F00 		ldm	r4, {r0, r1, r2, r3}
 2476 0048 FFF7FEFF 		bl	writePacket
 2477              	.LVL215:
 521:Core/Src/peripherals.c ****     HAL_NVIC_DisableIRQ(EXTI1_IRQn);
 2478              		.loc 1 521 5 view .LVU630
 2479 004c 0720     		movs	r0, #7
 2480 004e FFF7FEFF 		bl	HAL_NVIC_DisableIRQ
 2481              	.LVL216:
 522:Core/Src/peripherals.c ****     printf("sleeping...\n");
 2482              		.loc 1 522 5 view .LVU631
 2483 0052 3C48     		ldr	r0, .L143+8
 2484 0054 FFF7FEFF 		bl	puts
 2485              	.LVL217:
 523:Core/Src/peripherals.c ****     sensors_off();
 2486              		.loc 1 523 5 view .LVU632
 2487 0058 FFF7FEFF 		bl	sensors_off
 2488              	.LVL218:
 526:Core/Src/peripherals.c ****     __disable_irq();
 2489              		.loc 1 526 5 view .LVU633
 2490              	.LBB31:
 2491              	.LBI31:
 2492              		.file 3 "Drivers/CMSIS/Include/cmsis_gcc.h"
   1:Drivers/CMSIS/Include/cmsis_gcc.h **** /**************************************************************************//**
   2:Drivers/CMSIS/Include/cmsis_gcc.h ****  * @file     cmsis_gcc.h
   3:Drivers/CMSIS/Include/cmsis_gcc.h ****  * @brief    CMSIS compiler GCC header file
   4:Drivers/CMSIS/Include/cmsis_gcc.h ****  * @version  V5.2.0
   5:Drivers/CMSIS/Include/cmsis_gcc.h ****  * @date     08. May 2019
   6:Drivers/CMSIS/Include/cmsis_gcc.h ****  ******************************************************************************/
   7:Drivers/CMSIS/Include/cmsis_gcc.h **** /*
   8:Drivers/CMSIS/Include/cmsis_gcc.h ****  * Copyright (c) 2009-2019 Arm Limited. All rights reserved.
   9:Drivers/CMSIS/Include/cmsis_gcc.h ****  *
  10:Drivers/CMSIS/Include/cmsis_gcc.h ****  * SPDX-License-Identifier: Apache-2.0
  11:Drivers/CMSIS/Include/cmsis_gcc.h ****  *
ARM GAS  /var/folders/gv/t2w3mcd17yl2fynvjl120d0m0000gn/T//ccUzLJxe.s 			page 62


  12:Drivers/CMSIS/Include/cmsis_gcc.h ****  * Licensed under the Apache License, Version 2.0 (the License); you may
  13:Drivers/CMSIS/Include/cmsis_gcc.h ****  * not use this file except in compliance with the License.
  14:Drivers/CMSIS/Include/cmsis_gcc.h ****  * You may obtain a copy of the License at
  15:Drivers/CMSIS/Include/cmsis_gcc.h ****  *
  16:Drivers/CMSIS/Include/cmsis_gcc.h ****  * www.apache.org/licenses/LICENSE-2.0
  17:Drivers/CMSIS/Include/cmsis_gcc.h ****  *
  18:Drivers/CMSIS/Include/cmsis_gcc.h ****  * Unless required by applicable law or agreed to in writing, software
  19:Drivers/CMSIS/Include/cmsis_gcc.h ****  * distributed under the License is distributed on an AS IS BASIS, WITHOUT
  20:Drivers/CMSIS/Include/cmsis_gcc.h ****  * WARRANTIES OR CONDITIONS OF ANY KIND, either express or implied.
  21:Drivers/CMSIS/Include/cmsis_gcc.h ****  * See the License for the specific language governing permissions and
  22:Drivers/CMSIS/Include/cmsis_gcc.h ****  * limitations under the License.
  23:Drivers/CMSIS/Include/cmsis_gcc.h ****  */
  24:Drivers/CMSIS/Include/cmsis_gcc.h **** 
  25:Drivers/CMSIS/Include/cmsis_gcc.h **** #ifndef __CMSIS_GCC_H
  26:Drivers/CMSIS/Include/cmsis_gcc.h **** #define __CMSIS_GCC_H
  27:Drivers/CMSIS/Include/cmsis_gcc.h **** 
  28:Drivers/CMSIS/Include/cmsis_gcc.h **** /* ignore some GCC warnings */
  29:Drivers/CMSIS/Include/cmsis_gcc.h **** #pragma GCC diagnostic push
  30:Drivers/CMSIS/Include/cmsis_gcc.h **** #pragma GCC diagnostic ignored "-Wsign-conversion"
  31:Drivers/CMSIS/Include/cmsis_gcc.h **** #pragma GCC diagnostic ignored "-Wconversion"
  32:Drivers/CMSIS/Include/cmsis_gcc.h **** #pragma GCC diagnostic ignored "-Wunused-parameter"
  33:Drivers/CMSIS/Include/cmsis_gcc.h **** 
  34:Drivers/CMSIS/Include/cmsis_gcc.h **** /* Fallback for __has_builtin */
  35:Drivers/CMSIS/Include/cmsis_gcc.h **** #ifndef __has_builtin
  36:Drivers/CMSIS/Include/cmsis_gcc.h ****   #define __has_builtin(x) (0)
  37:Drivers/CMSIS/Include/cmsis_gcc.h **** #endif
  38:Drivers/CMSIS/Include/cmsis_gcc.h **** 
  39:Drivers/CMSIS/Include/cmsis_gcc.h **** /* CMSIS compiler specific defines */
  40:Drivers/CMSIS/Include/cmsis_gcc.h **** #ifndef   __ASM
  41:Drivers/CMSIS/Include/cmsis_gcc.h ****   #define __ASM                                  __asm
  42:Drivers/CMSIS/Include/cmsis_gcc.h **** #endif
  43:Drivers/CMSIS/Include/cmsis_gcc.h **** #ifndef   __INLINE
  44:Drivers/CMSIS/Include/cmsis_gcc.h ****   #define __INLINE                               inline
  45:Drivers/CMSIS/Include/cmsis_gcc.h **** #endif
  46:Drivers/CMSIS/Include/cmsis_gcc.h **** #ifndef   __STATIC_INLINE
  47:Drivers/CMSIS/Include/cmsis_gcc.h ****   #define __STATIC_INLINE                        static inline
  48:Drivers/CMSIS/Include/cmsis_gcc.h **** #endif
  49:Drivers/CMSIS/Include/cmsis_gcc.h **** #ifndef   __STATIC_FORCEINLINE                 
  50:Drivers/CMSIS/Include/cmsis_gcc.h ****   #define __STATIC_FORCEINLINE                   __attribute__((always_inline)) static inline
  51:Drivers/CMSIS/Include/cmsis_gcc.h **** #endif                                           
  52:Drivers/CMSIS/Include/cmsis_gcc.h **** #ifndef   __NO_RETURN
  53:Drivers/CMSIS/Include/cmsis_gcc.h ****   #define __NO_RETURN                            __attribute__((__noreturn__))
  54:Drivers/CMSIS/Include/cmsis_gcc.h **** #endif
  55:Drivers/CMSIS/Include/cmsis_gcc.h **** #ifndef   __USED
  56:Drivers/CMSIS/Include/cmsis_gcc.h ****   #define __USED                                 __attribute__((used))
  57:Drivers/CMSIS/Include/cmsis_gcc.h **** #endif
  58:Drivers/CMSIS/Include/cmsis_gcc.h **** #ifndef   __WEAK
  59:Drivers/CMSIS/Include/cmsis_gcc.h ****   #define __WEAK                                 __attribute__((weak))
  60:Drivers/CMSIS/Include/cmsis_gcc.h **** #endif
  61:Drivers/CMSIS/Include/cmsis_gcc.h **** #ifndef   __PACKED
  62:Drivers/CMSIS/Include/cmsis_gcc.h ****   #define __PACKED                               __attribute__((packed, aligned(1)))
  63:Drivers/CMSIS/Include/cmsis_gcc.h **** #endif
  64:Drivers/CMSIS/Include/cmsis_gcc.h **** #ifndef   __PACKED_STRUCT
  65:Drivers/CMSIS/Include/cmsis_gcc.h ****   #define __PACKED_STRUCT                        struct __attribute__((packed, aligned(1)))
  66:Drivers/CMSIS/Include/cmsis_gcc.h **** #endif
  67:Drivers/CMSIS/Include/cmsis_gcc.h **** #ifndef   __PACKED_UNION
  68:Drivers/CMSIS/Include/cmsis_gcc.h ****   #define __PACKED_UNION                         union __attribute__((packed, aligned(1)))
ARM GAS  /var/folders/gv/t2w3mcd17yl2fynvjl120d0m0000gn/T//ccUzLJxe.s 			page 63


  69:Drivers/CMSIS/Include/cmsis_gcc.h **** #endif
  70:Drivers/CMSIS/Include/cmsis_gcc.h **** #ifndef   __UNALIGNED_UINT32        /* deprecated */
  71:Drivers/CMSIS/Include/cmsis_gcc.h ****   #pragma GCC diagnostic push
  72:Drivers/CMSIS/Include/cmsis_gcc.h ****   #pragma GCC diagnostic ignored "-Wpacked"
  73:Drivers/CMSIS/Include/cmsis_gcc.h ****   #pragma GCC diagnostic ignored "-Wattributes"
  74:Drivers/CMSIS/Include/cmsis_gcc.h ****   struct __attribute__((packed)) T_UINT32 { uint32_t v; };
  75:Drivers/CMSIS/Include/cmsis_gcc.h ****   #pragma GCC diagnostic pop
  76:Drivers/CMSIS/Include/cmsis_gcc.h ****   #define __UNALIGNED_UINT32(x)                  (((struct T_UINT32 *)(x))->v)
  77:Drivers/CMSIS/Include/cmsis_gcc.h **** #endif
  78:Drivers/CMSIS/Include/cmsis_gcc.h **** #ifndef   __UNALIGNED_UINT16_WRITE
  79:Drivers/CMSIS/Include/cmsis_gcc.h ****   #pragma GCC diagnostic push
  80:Drivers/CMSIS/Include/cmsis_gcc.h ****   #pragma GCC diagnostic ignored "-Wpacked"
  81:Drivers/CMSIS/Include/cmsis_gcc.h ****   #pragma GCC diagnostic ignored "-Wattributes"
  82:Drivers/CMSIS/Include/cmsis_gcc.h ****   __PACKED_STRUCT T_UINT16_WRITE { uint16_t v; };
  83:Drivers/CMSIS/Include/cmsis_gcc.h ****   #pragma GCC diagnostic pop
  84:Drivers/CMSIS/Include/cmsis_gcc.h ****   #define __UNALIGNED_UINT16_WRITE(addr, val)    (void)((((struct T_UINT16_WRITE *)(void *)(addr))-
  85:Drivers/CMSIS/Include/cmsis_gcc.h **** #endif
  86:Drivers/CMSIS/Include/cmsis_gcc.h **** #ifndef   __UNALIGNED_UINT16_READ
  87:Drivers/CMSIS/Include/cmsis_gcc.h ****   #pragma GCC diagnostic push
  88:Drivers/CMSIS/Include/cmsis_gcc.h ****   #pragma GCC diagnostic ignored "-Wpacked"
  89:Drivers/CMSIS/Include/cmsis_gcc.h ****   #pragma GCC diagnostic ignored "-Wattributes"
  90:Drivers/CMSIS/Include/cmsis_gcc.h ****   __PACKED_STRUCT T_UINT16_READ { uint16_t v; };
  91:Drivers/CMSIS/Include/cmsis_gcc.h ****   #pragma GCC diagnostic pop
  92:Drivers/CMSIS/Include/cmsis_gcc.h ****   #define __UNALIGNED_UINT16_READ(addr)          (((const struct T_UINT16_READ *)(const void *)(add
  93:Drivers/CMSIS/Include/cmsis_gcc.h **** #endif
  94:Drivers/CMSIS/Include/cmsis_gcc.h **** #ifndef   __UNALIGNED_UINT32_WRITE
  95:Drivers/CMSIS/Include/cmsis_gcc.h ****   #pragma GCC diagnostic push
  96:Drivers/CMSIS/Include/cmsis_gcc.h ****   #pragma GCC diagnostic ignored "-Wpacked"
  97:Drivers/CMSIS/Include/cmsis_gcc.h ****   #pragma GCC diagnostic ignored "-Wattributes"
  98:Drivers/CMSIS/Include/cmsis_gcc.h ****   __PACKED_STRUCT T_UINT32_WRITE { uint32_t v; };
  99:Drivers/CMSIS/Include/cmsis_gcc.h ****   #pragma GCC diagnostic pop
 100:Drivers/CMSIS/Include/cmsis_gcc.h ****   #define __UNALIGNED_UINT32_WRITE(addr, val)    (void)((((struct T_UINT32_WRITE *)(void *)(addr))-
 101:Drivers/CMSIS/Include/cmsis_gcc.h **** #endif
 102:Drivers/CMSIS/Include/cmsis_gcc.h **** #ifndef   __UNALIGNED_UINT32_READ
 103:Drivers/CMSIS/Include/cmsis_gcc.h ****   #pragma GCC diagnostic push
 104:Drivers/CMSIS/Include/cmsis_gcc.h ****   #pragma GCC diagnostic ignored "-Wpacked"
 105:Drivers/CMSIS/Include/cmsis_gcc.h ****   #pragma GCC diagnostic ignored "-Wattributes"
 106:Drivers/CMSIS/Include/cmsis_gcc.h ****   __PACKED_STRUCT T_UINT32_READ { uint32_t v; };
 107:Drivers/CMSIS/Include/cmsis_gcc.h ****   #pragma GCC diagnostic pop
 108:Drivers/CMSIS/Include/cmsis_gcc.h ****   #define __UNALIGNED_UINT32_READ(addr)          (((const struct T_UINT32_READ *)(const void *)(add
 109:Drivers/CMSIS/Include/cmsis_gcc.h **** #endif
 110:Drivers/CMSIS/Include/cmsis_gcc.h **** #ifndef   __ALIGNED
 111:Drivers/CMSIS/Include/cmsis_gcc.h ****   #define __ALIGNED(x)                           __attribute__((aligned(x)))
 112:Drivers/CMSIS/Include/cmsis_gcc.h **** #endif
 113:Drivers/CMSIS/Include/cmsis_gcc.h **** #ifndef   __RESTRICT
 114:Drivers/CMSIS/Include/cmsis_gcc.h ****   #define __RESTRICT                             __restrict
 115:Drivers/CMSIS/Include/cmsis_gcc.h **** #endif
 116:Drivers/CMSIS/Include/cmsis_gcc.h **** #ifndef   __COMPILER_BARRIER
 117:Drivers/CMSIS/Include/cmsis_gcc.h ****   #define __COMPILER_BARRIER()                   __ASM volatile("":::"memory")
 118:Drivers/CMSIS/Include/cmsis_gcc.h **** #endif
 119:Drivers/CMSIS/Include/cmsis_gcc.h **** 
 120:Drivers/CMSIS/Include/cmsis_gcc.h **** /* #########################  Startup and Lowlevel Init  ######################## */
 121:Drivers/CMSIS/Include/cmsis_gcc.h **** 
 122:Drivers/CMSIS/Include/cmsis_gcc.h **** #ifndef __PROGRAM_START
 123:Drivers/CMSIS/Include/cmsis_gcc.h **** 
 124:Drivers/CMSIS/Include/cmsis_gcc.h **** /**
 125:Drivers/CMSIS/Include/cmsis_gcc.h ****   \brief   Initializes data and bss sections
ARM GAS  /var/folders/gv/t2w3mcd17yl2fynvjl120d0m0000gn/T//ccUzLJxe.s 			page 64


 126:Drivers/CMSIS/Include/cmsis_gcc.h ****   \details This default implementations initialized all data and additional bss
 127:Drivers/CMSIS/Include/cmsis_gcc.h ****            sections relying on .copy.table and .zero.table specified properly
 128:Drivers/CMSIS/Include/cmsis_gcc.h ****            in the used linker script.
 129:Drivers/CMSIS/Include/cmsis_gcc.h ****   
 130:Drivers/CMSIS/Include/cmsis_gcc.h ****  */
 131:Drivers/CMSIS/Include/cmsis_gcc.h **** __STATIC_FORCEINLINE __NO_RETURN void __cmsis_start(void)
 132:Drivers/CMSIS/Include/cmsis_gcc.h **** {
 133:Drivers/CMSIS/Include/cmsis_gcc.h ****   extern void _start(void) __NO_RETURN;
 134:Drivers/CMSIS/Include/cmsis_gcc.h ****   
 135:Drivers/CMSIS/Include/cmsis_gcc.h ****   typedef struct {
 136:Drivers/CMSIS/Include/cmsis_gcc.h ****     uint32_t const* src;
 137:Drivers/CMSIS/Include/cmsis_gcc.h ****     uint32_t* dest;
 138:Drivers/CMSIS/Include/cmsis_gcc.h ****     uint32_t  wlen;
 139:Drivers/CMSIS/Include/cmsis_gcc.h ****   } __copy_table_t;
 140:Drivers/CMSIS/Include/cmsis_gcc.h ****   
 141:Drivers/CMSIS/Include/cmsis_gcc.h ****   typedef struct {
 142:Drivers/CMSIS/Include/cmsis_gcc.h ****     uint32_t* dest;
 143:Drivers/CMSIS/Include/cmsis_gcc.h ****     uint32_t  wlen;
 144:Drivers/CMSIS/Include/cmsis_gcc.h ****   } __zero_table_t;
 145:Drivers/CMSIS/Include/cmsis_gcc.h ****   
 146:Drivers/CMSIS/Include/cmsis_gcc.h ****   extern const __copy_table_t __copy_table_start__;
 147:Drivers/CMSIS/Include/cmsis_gcc.h ****   extern const __copy_table_t __copy_table_end__;
 148:Drivers/CMSIS/Include/cmsis_gcc.h ****   extern const __zero_table_t __zero_table_start__;
 149:Drivers/CMSIS/Include/cmsis_gcc.h ****   extern const __zero_table_t __zero_table_end__;
 150:Drivers/CMSIS/Include/cmsis_gcc.h **** 
 151:Drivers/CMSIS/Include/cmsis_gcc.h ****   for (__copy_table_t const* pTable = &__copy_table_start__; pTable < &__copy_table_end__; ++pTable
 152:Drivers/CMSIS/Include/cmsis_gcc.h ****     for(uint32_t i=0u; i<pTable->wlen; ++i) {
 153:Drivers/CMSIS/Include/cmsis_gcc.h ****       pTable->dest[i] = pTable->src[i];
 154:Drivers/CMSIS/Include/cmsis_gcc.h ****     }
 155:Drivers/CMSIS/Include/cmsis_gcc.h ****   }
 156:Drivers/CMSIS/Include/cmsis_gcc.h ****  
 157:Drivers/CMSIS/Include/cmsis_gcc.h ****   for (__zero_table_t const* pTable = &__zero_table_start__; pTable < &__zero_table_end__; ++pTable
 158:Drivers/CMSIS/Include/cmsis_gcc.h ****     for(uint32_t i=0u; i<pTable->wlen; ++i) {
 159:Drivers/CMSIS/Include/cmsis_gcc.h ****       pTable->dest[i] = 0u;
 160:Drivers/CMSIS/Include/cmsis_gcc.h ****     }
 161:Drivers/CMSIS/Include/cmsis_gcc.h ****   }
 162:Drivers/CMSIS/Include/cmsis_gcc.h ****  
 163:Drivers/CMSIS/Include/cmsis_gcc.h ****   _start();
 164:Drivers/CMSIS/Include/cmsis_gcc.h **** }
 165:Drivers/CMSIS/Include/cmsis_gcc.h ****   
 166:Drivers/CMSIS/Include/cmsis_gcc.h **** #define __PROGRAM_START           __cmsis_start
 167:Drivers/CMSIS/Include/cmsis_gcc.h **** #endif
 168:Drivers/CMSIS/Include/cmsis_gcc.h **** 
 169:Drivers/CMSIS/Include/cmsis_gcc.h **** #ifndef __INITIAL_SP
 170:Drivers/CMSIS/Include/cmsis_gcc.h **** #define __INITIAL_SP              __StackTop
 171:Drivers/CMSIS/Include/cmsis_gcc.h **** #endif
 172:Drivers/CMSIS/Include/cmsis_gcc.h **** 
 173:Drivers/CMSIS/Include/cmsis_gcc.h **** #ifndef __STACK_LIMIT
 174:Drivers/CMSIS/Include/cmsis_gcc.h **** #define __STACK_LIMIT             __StackLimit
 175:Drivers/CMSIS/Include/cmsis_gcc.h **** #endif
 176:Drivers/CMSIS/Include/cmsis_gcc.h **** 
 177:Drivers/CMSIS/Include/cmsis_gcc.h **** #ifndef __VECTOR_TABLE
 178:Drivers/CMSIS/Include/cmsis_gcc.h **** #define __VECTOR_TABLE            __Vectors
 179:Drivers/CMSIS/Include/cmsis_gcc.h **** #endif
 180:Drivers/CMSIS/Include/cmsis_gcc.h **** 
 181:Drivers/CMSIS/Include/cmsis_gcc.h **** #ifndef __VECTOR_TABLE_ATTRIBUTE
 182:Drivers/CMSIS/Include/cmsis_gcc.h **** #define __VECTOR_TABLE_ATTRIBUTE  __attribute((used, section(".vectors")))
ARM GAS  /var/folders/gv/t2w3mcd17yl2fynvjl120d0m0000gn/T//ccUzLJxe.s 			page 65


 183:Drivers/CMSIS/Include/cmsis_gcc.h **** #endif
 184:Drivers/CMSIS/Include/cmsis_gcc.h **** 
 185:Drivers/CMSIS/Include/cmsis_gcc.h **** /* ###########################  Core Function Access  ########################### */
 186:Drivers/CMSIS/Include/cmsis_gcc.h **** /** \ingroup  CMSIS_Core_FunctionInterface
 187:Drivers/CMSIS/Include/cmsis_gcc.h ****     \defgroup CMSIS_Core_RegAccFunctions CMSIS Core Register Access Functions
 188:Drivers/CMSIS/Include/cmsis_gcc.h ****   @{
 189:Drivers/CMSIS/Include/cmsis_gcc.h ****  */
 190:Drivers/CMSIS/Include/cmsis_gcc.h **** 
 191:Drivers/CMSIS/Include/cmsis_gcc.h **** /**
 192:Drivers/CMSIS/Include/cmsis_gcc.h ****   \brief   Enable IRQ Interrupts
 193:Drivers/CMSIS/Include/cmsis_gcc.h ****   \details Enables IRQ interrupts by clearing the I-bit in the CPSR.
 194:Drivers/CMSIS/Include/cmsis_gcc.h ****            Can only be executed in Privileged modes.
 195:Drivers/CMSIS/Include/cmsis_gcc.h ****  */
 196:Drivers/CMSIS/Include/cmsis_gcc.h **** __STATIC_FORCEINLINE void __enable_irq(void)
 197:Drivers/CMSIS/Include/cmsis_gcc.h **** {
 198:Drivers/CMSIS/Include/cmsis_gcc.h ****   __ASM volatile ("cpsie i" : : : "memory");
 199:Drivers/CMSIS/Include/cmsis_gcc.h **** }
 200:Drivers/CMSIS/Include/cmsis_gcc.h **** 
 201:Drivers/CMSIS/Include/cmsis_gcc.h **** 
 202:Drivers/CMSIS/Include/cmsis_gcc.h **** /**
 203:Drivers/CMSIS/Include/cmsis_gcc.h ****   \brief   Disable IRQ Interrupts
 204:Drivers/CMSIS/Include/cmsis_gcc.h ****   \details Disables IRQ interrupts by setting the I-bit in the CPSR.
 205:Drivers/CMSIS/Include/cmsis_gcc.h ****            Can only be executed in Privileged modes.
 206:Drivers/CMSIS/Include/cmsis_gcc.h ****  */
 207:Drivers/CMSIS/Include/cmsis_gcc.h **** __STATIC_FORCEINLINE void __disable_irq(void)
 2493              		.loc 3 207 27 view .LVU634
 2494              	.LBB32:
 208:Drivers/CMSIS/Include/cmsis_gcc.h **** {
 209:Drivers/CMSIS/Include/cmsis_gcc.h ****   __ASM volatile ("cpsid i" : : : "memory");
 2495              		.loc 3 209 3 view .LVU635
 2496              		.syntax unified
 2497              	@ 209 "Drivers/CMSIS/Include/cmsis_gcc.h" 1
 2498 005c 72B6     		cpsid i
 2499              	@ 0 "" 2
 2500              		.thumb
 2501              		.syntax unified
 2502              	.LBE32:
 2503              	.LBE31:
 527:Core/Src/peripherals.c ****     __HAL_GPIO_EXTI_CLEAR_IT(Acc_Int_Pin);
 2504              		.loc 1 527 5 view .LVU636
 2505 005e 3A4B     		ldr	r3, .L143+12
 2506 0060 5D61     		str	r5, [r3, #20]
 528:Core/Src/peripherals.c ****     HAL_SuspendTick();
 2507              		.loc 1 528 5 view .LVU637
 2508 0062 FFF7FEFF 		bl	HAL_SuspendTick
 2509              	.LVL219:
 529:Core/Src/peripherals.c ****     __enable_irq();                 // pending-IRQ check at WFI still wakes correctly
 2510              		.loc 1 529 5 view .LVU638
 2511              	.LBB33:
 2512              	.LBI33:
 196:Drivers/CMSIS/Include/cmsis_gcc.h **** {
 2513              		.loc 3 196 27 view .LVU639
 2514              	.LBB34:
 198:Drivers/CMSIS/Include/cmsis_gcc.h **** }
 2515              		.loc 3 198 3 view .LVU640
 2516              		.syntax unified
 2517              	@ 198 "Drivers/CMSIS/Include/cmsis_gcc.h" 1
ARM GAS  /var/folders/gv/t2w3mcd17yl2fynvjl120d0m0000gn/T//ccUzLJxe.s 			page 66


 2518 0066 62B6     		cpsie i
 2519              	@ 0 "" 2
 2520              		.thumb
 2521              		.syntax unified
 2522              	.LBE34:
 2523              	.LBE33:
 530:Core/Src/peripherals.c ****     HAL_PWREx_EnterSTOP2Mode(PWR_STOPENTRY_WFI);
 2524              		.loc 1 530 5 view .LVU641
 2525 0068 2846     		mov	r0, r5
 2526 006a FFF7FEFF 		bl	HAL_PWREx_EnterSTOP2Mode
 2527              	.LVL220:
 532:Core/Src/peripherals.c ****     HAL_ResumeTick();
 2528              		.loc 1 532 5 view .LVU642
 2529 006e FFF7FEFF 		bl	HAL_ResumeTick
 2530              	.LVL221:
 533:Core/Src/peripherals.c ****     sensors_on();
 2531              		.loc 1 533 5 view .LVU643
 2532 0072 FFF7FEFF 		bl	sensors_on
 2533              	.LVL222:
 535:Core/Src/peripherals.c ****     SystemClock_Config();
 2534              		.loc 1 535 5 view .LVU644
 2535 0076 FFF7FEFF 		bl	SystemClock_Config
 2536              	.LVL223:
 536:Core/Src/peripherals.c ****     HAL_I2C_MspInit(&hi2c1);
 2537              		.loc 1 536 5 view .LVU645
 2538 007a 3448     		ldr	r0, .L143+16
 2539 007c FFF7FEFF 		bl	HAL_I2C_MspInit
 2540              	.LVL224:
 537:Core/Src/peripherals.c ****     HAL_I2C_MspInit(&hi2c2);
 2541              		.loc 1 537 5 view .LVU646
 2542 0080 3348     		ldr	r0, .L143+20
 2543 0082 FFF7FEFF 		bl	HAL_I2C_MspInit
 2544              	.LVL225:
 538:Core/Src/peripherals.c ****     HAL_SD_MspInit(&hsd1);
 2545              		.loc 1 538 5 view .LVU647
 2546 0086 3348     		ldr	r0, .L143+24
 2547 0088 FFF7FEFF 		bl	HAL_SD_MspInit
 2548              	.LVL226:
 539:Core/Src/peripherals.c ****     HAL_UART_MspInit(&huart1);
 2549              		.loc 1 539 5 view .LVU648
 2550 008c 3248     		ldr	r0, .L143+28
 2551 008e FFF7FEFF 		bl	HAL_UART_MspInit
 2552              	.LVL227:
 540:Core/Src/peripherals.c ****     HAL_NVIC_EnableIRQ(EXTI1_IRQn);
 2553              		.loc 1 540 5 view .LVU649
 2554 0092 0720     		movs	r0, #7
 2555 0094 FFF7FEFF 		bl	HAL_NVIC_EnableIRQ
 2556              	.LVL228:
 555:Core/Src/peripherals.c ****     uint32_t start = HAL_GetTick();
 2557              		.loc 1 555 5 view .LVU650
 555:Core/Src/peripherals.c ****     uint32_t start = HAL_GetTick();
 2558              		.loc 1 555 22 is_stmt 0 view .LVU651
 2559 0098 FFF7FEFF 		bl	HAL_GetTick
 2560              	.LVL229:
 556:Core/Src/peripherals.c ****     printf("SD mount: %p\r\n",&SDFatFS);
 2561              		.loc 1 556 5 is_stmt 1 view .LVU652
 2562 009c 2F49     		ldr	r1, .L143+32
ARM GAS  /var/folders/gv/t2w3mcd17yl2fynvjl120d0m0000gn/T//ccUzLJxe.s 			page 67


 2563 009e 3048     		ldr	r0, .L143+36
 2564 00a0 FFF7FEFF 		bl	printf
 2565              	.LVL230:
 558:Core/Src/peripherals.c ****     printf("wakeup!\n");
 2566              		.loc 1 558 5 view .LVU653
 2567 00a4 2F48     		ldr	r0, .L143+40
 2568 00a6 FFF7FEFF 		bl	puts
 2569              	.LVL231:
 561:Core/Src/peripherals.c ****     setupAccWake();
 2570              		.loc 1 561 5 view .LVU654
 2571 00aa FFF7FEFF 		bl	setupAccWake
 2572              	.LVL232:
 562:Core/Src/peripherals.c ****     int res = initBMI270();
 2573              		.loc 1 562 5 view .LVU655
 562:Core/Src/peripherals.c ****     int res = initBMI270();
 2574              		.loc 1 562 15 is_stmt 0 view .LVU656
 2575 00ae FFF7FEFF 		bl	initBMI270
 2576              	.LVL233:
 563:Core/Src/peripherals.c ****     while (res == -2) { 
 2577              		.loc 1 563 5 is_stmt 1 view .LVU657
 563:Core/Src/peripherals.c ****     while (res == -2) { 
 2578              		.loc 1 563 11 is_stmt 0 view .LVU658
 2579 00b2 0FE0     		b	.L138
 2580              	.L139:
 564:Core/Src/peripherals.c ****         HAL_Delay(2000); 
 2581              		.loc 1 564 9 is_stmt 1 view .LVU659
 2582 00b4 4FF4FA60 		mov	r0, #2000
 2583              	.LVL234:
 564:Core/Src/peripherals.c ****         HAL_Delay(2000); 
 2584              		.loc 1 564 9 is_stmt 0 view .LVU660
 2585 00b8 FFF7FEFF 		bl	HAL_Delay
 2586              	.LVL235:
 565:Core/Src/peripherals.c ****         HAL_I2C_DeInit(&hi2c2);
 2587              		.loc 1 565 9 is_stmt 1 view .LVU661
 2588 00bc 244C     		ldr	r4, .L143+20
 2589 00be 2046     		mov	r0, r4
 2590 00c0 FFF7FEFF 		bl	HAL_I2C_DeInit
 2591              	.LVL236:
 566:Core/Src/peripherals.c ****         HAL_Delay(5);
 2592              		.loc 1 566 9 view .LVU662
 2593 00c4 0520     		movs	r0, #5
 2594 00c6 FFF7FEFF 		bl	HAL_Delay
 2595              	.LVL237:
 567:Core/Src/peripherals.c ****         HAL_I2C_Init(&hi2c2);
 2596              		.loc 1 567 9 view .LVU663
 2597 00ca 2046     		mov	r0, r4
 2598 00cc FFF7FEFF 		bl	HAL_I2C_Init
 2599              	.LVL238:
 568:Core/Src/peripherals.c ****         res = initBMI270();
 2600              		.loc 1 568 9 view .LVU664
 568:Core/Src/peripherals.c ****         res = initBMI270();
 2601              		.loc 1 568 15 is_stmt 0 view .LVU665
 2602 00d0 FFF7FEFF 		bl	initBMI270
 2603              	.LVL239:
 2604              	.L138:
 563:Core/Src/peripherals.c ****     while (res == -2) { 
 2605              		.loc 1 563 16 is_stmt 1 view .LVU666
ARM GAS  /var/folders/gv/t2w3mcd17yl2fynvjl120d0m0000gn/T//ccUzLJxe.s 			page 68


 2606 00d4 10F1020F 		cmn	r0, #2
 2607 00d8 ECD0     		beq	.L139
 571:Core/Src/peripherals.c ****     if (res != 0) Error_Handler();
 2608              		.loc 1 571 5 view .LVU667
 571:Core/Src/peripherals.c ****     if (res != 0) Error_Handler();
 2609              		.loc 1 571 8 is_stmt 0 view .LVU668
 2610 00da 60BB     		cbnz	r0, .L142
 2611              	.LVL240:
 2612              	.L140:
 572:Core/Src/peripherals.c ****     initTMP();
 2613              		.loc 1 572 5 is_stmt 1 view .LVU669
 2614 00dc FFF7FEFF 		bl	initTMP
 2615              	.LVL241:
 573:Core/Src/peripherals.c ****     printf("TMP/PRS initialization successful!\n");
 2616              		.loc 1 573 5 view .LVU670
 2617 00e0 2148     		ldr	r0, .L143+44
 2618 00e2 FFF7FEFF 		bl	puts
 2619              	.LVL242:
 574:Core/Src/peripherals.c ****     initBMIC();
 2620              		.loc 1 574 5 view .LVU671
 2621 00e6 FFF7FEFF 		bl	initBMIC
 2622              	.LVL243:
 575:Core/Src/peripherals.c ****     GPS_Start();
 2623              		.loc 1 575 5 view .LVU672
 2624 00ea FFF7FEFF 		bl	GPS_Start
 2625              	.LVL244:
 577:Core/Src/peripherals.c ****     startTime = HAL_GetTick();
 2626              		.loc 1 577 5 view .LVU673
 577:Core/Src/peripherals.c ****     startTime = HAL_GetTick();
 2627              		.loc 1 577 17 is_stmt 0 view .LVU674
 2628 00ee FFF7FEFF 		bl	HAL_GetTick
 2629              	.LVL245:
 577:Core/Src/peripherals.c ****     startTime = HAL_GetTick();
 2630              		.loc 1 577 15 discriminator 1 view .LVU675
 2631 00f2 134E     		ldr	r6, .L143+4
 2632 00f4 3060     		str	r0, [r6]
 578:Core/Src/peripherals.c ****     sleep = 1;
 2633              		.loc 1 578 5 is_stmt 1 view .LVU676
 578:Core/Src/peripherals.c ****     sleep = 1;
 2634              		.loc 1 578 11 is_stmt 0 view .LVU677
 2635 00f6 0125     		movs	r5, #1
 2636 00f8 8DF83750 		strb	r5, [sp, #55]
 579:Core/Src/peripherals.c ****     packet wakePack = {0};
 2637              		.loc 1 579 5 is_stmt 1 view .LVU678
 579:Core/Src/peripherals.c ****     packet wakePack = {0};
 2638              		.loc 1 579 12 is_stmt 0 view .LVU679
 2639 00fc 03AC     		add	r4, sp, #12
 2640 00fe 0023     		movs	r3, #0
 2641 0100 0393     		str	r3, [sp, #12]
 2642 0102 0493     		str	r3, [sp, #16]
 2643 0104 0593     		str	r3, [sp, #20]
 2644 0106 0693     		str	r3, [sp, #24]
 2645 0108 0793     		str	r3, [sp, #28]
 580:Core/Src/peripherals.c ****     wakePack.type = PACKET_WAKE;
 2646              		.loc 1 580 5 is_stmt 1 view .LVU680
 580:Core/Src/peripherals.c ****     wakePack.type = PACKET_WAKE;
 2647              		.loc 1 580 19 is_stmt 0 view .LVU681
ARM GAS  /var/folders/gv/t2w3mcd17yl2fynvjl120d0m0000gn/T//ccUzLJxe.s 			page 69


 2648 010a 0223     		movs	r3, #2
 2649 010c 8DF80C30 		strb	r3, [sp, #12]
 581:Core/Src/peripherals.c ****     wakePack.timestamp = HAL_GetTick() - startTime;
 2650              		.loc 1 581 5 is_stmt 1 view .LVU682
 581:Core/Src/peripherals.c ****     wakePack.timestamp = HAL_GetTick() - startTime;
 2651              		.loc 1 581 26 is_stmt 0 view .LVU683
 2652 0110 FFF7FEFF 		bl	HAL_GetTick
 2653              	.LVL246:
 581:Core/Src/peripherals.c ****     wakePack.timestamp = HAL_GetTick() - startTime;
 2654              		.loc 1 581 40 discriminator 1 view .LVU684
 2655 0114 3368     		ldr	r3, [r6]
 2656 0116 C01A     		subs	r0, r0, r3
 581:Core/Src/peripherals.c ****     wakePack.timestamp = HAL_GetTick() - startTime;
 2657              		.loc 1 581 24 discriminator 1 view .LVU685
 2658 0118 0490     		str	r0, [sp, #16]
 582:Core/Src/peripherals.c ****     wakePack.rtcTimestamp = rtcElapsed();
 2659              		.loc 1 582 5 is_stmt 1 view .LVU686
 582:Core/Src/peripherals.c ****     wakePack.rtcTimestamp = rtcElapsed();
 2660              		.loc 1 582 29 is_stmt 0 view .LVU687
 2661 011a FFF7FEFF 		bl	rtcElapsed
 2662              	.LVL247:
 582:Core/Src/peripherals.c ****     wakePack.rtcTimestamp = rtcElapsed();
 2663              		.loc 1 582 27 discriminator 1 view .LVU688
 2664 011e 0590     		str	r0, [sp, #20]
 583:Core/Src/peripherals.c ****     wakePack.len = 1;
 2665              		.loc 1 583 5 is_stmt 1 view .LVU689
 583:Core/Src/peripherals.c ****     wakePack.len = 1;
 2666              		.loc 1 583 18 is_stmt 0 view .LVU690
 2667 0120 0695     		str	r5, [sp, #24]
 584:Core/Src/peripherals.c ****     wakePack.payload = &sleep;
 2668              		.loc 1 584 5 is_stmt 1 view .LVU691
 584:Core/Src/peripherals.c ****     wakePack.payload = &sleep;
 2669              		.loc 1 584 22 is_stmt 0 view .LVU692
 2670 0122 0DF13703 		add	r3, sp, #55
 2671 0126 0793     		str	r3, [sp, #28]
 585:Core/Src/peripherals.c ****     writePacket(wakePack);
 2672              		.loc 1 585 5 is_stmt 1 view .LVU693
 2673 0128 0093     		str	r3, [sp]
 2674 012a 94E80F00 		ldm	r4, {r0, r1, r2, r3}
 2675 012e FFF7FEFF 		bl	writePacket
 2676              	.LVL248:
 586:Core/Src/peripherals.c **** }
 2677              		.loc 1 586 1 is_stmt 0 view .LVU694
 2678 0132 0EB0     		add	sp, sp, #56
 2679              	.LCFI47:
 2680              		.cfi_remember_state
 2681              		.cfi_def_cfa_offset 16
 2682              		@ sp needed
 2683 0134 70BD     		pop	{r4, r5, r6, pc}
 2684              	.LVL249:
 2685              	.L142:
 2686              	.LCFI48:
 2687              		.cfi_restore_state
 571:Core/Src/peripherals.c ****     if (res != 0) Error_Handler();
 2688              		.loc 1 571 19 is_stmt 1 discriminator 1 view .LVU695
 2689 0136 FFF7FEFF 		bl	Error_Handler
 2690              	.LVL250:
ARM GAS  /var/folders/gv/t2w3mcd17yl2fynvjl120d0m0000gn/T//ccUzLJxe.s 			page 70


 571:Core/Src/peripherals.c ****     if (res != 0) Error_Handler();
 2691              		.loc 1 571 19 is_stmt 0 discriminator 1 view .LVU696
 2692 013a CFE7     		b	.L140
 2693              	.L144:
 2694              		.align	2
 2695              	.L143:
 2696 013c 00000000 		.word	.LC25
 2697 0140 00000000 		.word	startTime
 2698 0144 1C000000 		.word	.LC26
 2699 0148 00040140 		.word	1073808384
 2700 014c 00000000 		.word	hi2c1
 2701 0150 00000000 		.word	hi2c2
 2702 0154 00000000 		.word	hsd1
 2703 0158 00000000 		.word	huart1
 2704 015c 00000000 		.word	SDFatFS
 2705 0160 28000000 		.word	.LC27
 2706 0164 38000000 		.word	.LC28
 2707 0168 40000000 		.word	.LC29
 2708              		.cfi_endproc
 2709              	.LFE250:
 2711              		.global	lastAcc
 2712              		.section	.bss.lastAcc,"aw",%nobits
 2713              		.align	1
 2716              	lastAcc:
 2717 0000 0000     		.space	2
 2718              		.global	totalEnergyUsed
 2719              		.section	.bss.totalEnergyUsed,"aw",%nobits
 2720              		.align	2
 2723              	totalEnergyUsed:
 2724 0000 00000000 		.space	4
 2725              		.global	rmc_ready
 2726              		.section	.bss.rmc_ready,"aw",%nobits
 2729              	rmc_ready:
 2730 0000 00       		.space	1
 2731              		.global	gps_idx
 2732              		.section	.bss.gps_idx,"aw",%nobits
 2733              		.align	1
 2736              	gps_idx:
 2737 0000 0000     		.space	2
 2738              		.global	saved_rmc
 2739              		.section	.bss.saved_rmc,"aw",%nobits
 2740              		.align	2
 2743              	saved_rmc:
 2744 0000 00000000 		.space	128
 2744      00000000 
 2744      00000000 
 2744      00000000 
 2744      00000000 
 2745              		.global	nmea_recv
 2746              		.section	.bss.nmea_recv,"aw",%nobits
 2747              		.align	2
 2750              	nmea_recv:
 2751 0000 00000000 		.space	128
 2751      00000000 
 2751      00000000 
 2751      00000000 
 2751      00000000 
ARM GAS  /var/folders/gv/t2w3mcd17yl2fynvjl120d0m0000gn/T//ccUzLJxe.s 			page 71


 2752              		.global	gps_char
 2753              		.section	.bss.gps_char,"aw",%nobits
 2756              	gps_char:
 2757 0000 00       		.space	1
 2758              		.global	fifo_buffer
 2759              		.section	.bss.fifo_buffer,"aw",%nobits
 2760              		.align	2
 2763              	fifo_buffer:
 2764 0000 00000000 		.space	1024
 2764      00000000 
 2764      00000000 
 2764      00000000 
 2764      00000000 
 2765              		.global	payload_size
 2766              		.section	.bss.payload_size,"aw",%nobits
 2767              		.align	2
 2770              	payload_size:
 2771 0000 00000000 		.space	4
 2772              		.global	bmi2_data
 2773              		.section	.bss.bmi2_data,"aw",%nobits
 2774              		.align	2
 2777              	bmi2_data:
 2778 0000 00000000 		.space	1536
 2778      00000000 
 2778      00000000 
 2778      00000000 
 2778      00000000 
 2779              		.global	startTime
 2780              		.section	.bss.startTime,"aw",%nobits
 2781              		.align	2
 2784              	startTime:
 2785 0000 00000000 		.space	4
 2786              		.global	fifo
 2787              		.section	.bss.fifo,"aw",%nobits
 2788              		.align	2
 2791              	fifo:
 2792 0000 00000000 		.space	36
 2792      00000000 
 2792      00000000 
 2792      00000000 
 2792      00000000 
 2793              		.global	bmi270
 2794              		.section	.bss.bmi270,"aw",%nobits
 2795              		.align	3
 2798              	bmi270:
 2799 0000 00000000 		.space	104
 2799      00000000 
 2799      00000000 
 2799      00000000 
 2799      00000000 
 2800              		.section	.rodata.MONTH_DAYS,"a"
 2801              		.align	2
 2804              	MONTH_DAYS:
 2805 0000 1F1C1F1E 		.ascii	"\037\034\037\036\037\036\037\037\036\037\036\037"
 2805      1F1E1F1F 
 2805      1E1F1E1F 
 2806              		.text
ARM GAS  /var/folders/gv/t2w3mcd17yl2fynvjl120d0m0000gn/T//ccUzLJxe.s 			page 72


 2807              	.Letext0:
 2808              		.file 4 "/Applications/ArmGNUToolchain/15.2.rel1/arm-none-eabi/arm-none-eabi/include/machine/_defa
 2809              		.file 5 "/Applications/ArmGNUToolchain/15.2.rel1/arm-none-eabi/lib/gcc/arm-none-eabi/15.2.1/includ
 2810              		.file 6 "/Applications/ArmGNUToolchain/15.2.rel1/arm-none-eabi/arm-none-eabi/include/sys/_stdint.h
 2811              		.file 7 "Core/Src/bmi270/bmi2_defs.h"
 2812              		.file 8 "Middlewares/Third_Party/FatFs/src/integer.h"
 2813              		.file 9 "Drivers/CMSIS/Device/ST/STM32L4xx/Include/stm32l476xx.h"
 2814              		.file 10 "Drivers/STM32L4xx_HAL_Driver/Inc/stm32l4xx_hal_def.h"
 2815              		.file 11 "Drivers/STM32L4xx_HAL_Driver/Inc/stm32l4xx_hal_gpio.h"
 2816              		.file 12 "Drivers/STM32L4xx_HAL_Driver/Inc/stm32l4xx_hal_dma.h"
 2817              		.file 13 "Drivers/STM32L4xx_HAL_Driver/Inc/stm32l4xx_hal_i2c.h"
 2818              		.file 14 "Drivers/STM32L4xx_HAL_Driver/Inc/stm32l4xx_hal_rtc.h"
 2819              		.file 15 "Drivers/STM32L4xx_HAL_Driver/Inc/stm32l4xx_ll_sdmmc.h"
 2820              		.file 16 "Drivers/STM32L4xx_HAL_Driver/Inc/stm32l4xx_hal_sd.h"
 2821              		.file 17 "Drivers/STM32L4xx_HAL_Driver/Inc/stm32l4xx_hal_uart.h"
 2822              		.file 18 "Middlewares/Third_Party/FatFs/src/ff.h"
 2823              		.file 19 "Core/Inc/sd_intf.h"
 2824              		.file 20 "FATFS/App/fatfs.h"
 2825              		.file 21 "Core/Inc/peripherals.h"
 2826              		.file 22 "Core/Inc/i2c.h"
 2827              		.file 23 "Core/Inc/usart.h"
 2828              		.file 24 "Drivers/STM32L4xx_HAL_Driver/Inc/stm32l4xx_ll_dma.h"
 2829              		.file 25 "Core/Inc/sdmmc.h"
 2830              		.file 26 "Drivers/STM32L4xx_HAL_Driver/Inc/stm32l4xx_hal_cortex.h"
 2831              		.file 27 "Core/Inc/main.h"
 2832              		.file 28 "Drivers/STM32L4xx_HAL_Driver/Inc/stm32l4xx_hal.h"
 2833              		.file 29 "Drivers/STM32L4xx_HAL_Driver/Inc/stm32l4xx_hal_pwr_ex.h"
 2834              		.file 30 "/Applications/ArmGNUToolchain/15.2.rel1/arm-none-eabi/arm-none-eabi/include/string.h"
 2835              		.file 31 "Core/Src/bmi270/bmi2.h"
 2836              		.file 32 "Core/Src/bmi270/bmi270.h"
 2837              		.file 33 "/Applications/ArmGNUToolchain/15.2.rel1/arm-none-eabi/arm-none-eabi/include/stdio.h"
 2838              		.file 34 "<built-in>"
ARM GAS  /var/folders/gv/t2w3mcd17yl2fynvjl120d0m0000gn/T//ccUzLJxe.s 			page 73

