ARM GAS  /var/folders/gv/t2w3mcd17yl2fynvjl120d0m0000gn/T//ccqMz1D7.s 			page 1


   1              		.cpu cortex-m4
   2              		.arch armv7e-m
   3              		.fpu fpv4-sp-d16
   4              		.eabi_attribute 27, 1
   5              		.eabi_attribute 28, 1
   6              		.eabi_attribute 20, 1
   7              		.eabi_attribute 21, 1
   8              		.eabi_attribute 23, 3
   9              		.eabi_attribute 24, 1
  10              		.eabi_attribute 25, 1
  11              		.eabi_attribute 26, 1
  12              		.eabi_attribute 30, 1
  13              		.eabi_attribute 34, 1
  14              		.eabi_attribute 18, 4
  15              		.file	"sd_intf.c"
  16              		.text
  17              	.Ltext0:
  18              		.cfi_sections	.debug_frame
  19              		.file 1 "Core/Src/sd_intf.c"
  20              		.section	.rodata.log_printf.str1.4,"aMS",%progbits,1
  21              		.align	2
  22              	.LC0:
  23 0000 257300   		.ascii	"%s\000"
  24              		.section	.text.log_printf,"ax",%progbits
  25              		.align	1
  26              		.global	log_printf
  27              		.syntax unified
  28              		.thumb
  29              		.thumb_func
  31              	log_printf:
  32              	.LVL0:
  33              	.LFB236:
   1:Core/Src/sd_intf.c **** #include "libs.h"
   2:Core/Src/sd_intf.c **** 
   3:Core/Src/sd_intf.c **** 
   4:Core/Src/sd_intf.c **** FIL sdData;
   5:Core/Src/sd_intf.c **** FIL sdLog;
   6:Core/Src/sd_intf.c **** 
   7:Core/Src/sd_intf.c **** char data_path[256];
   8:Core/Src/sd_intf.c **** char log_path[256];
   9:Core/Src/sd_intf.c **** 
  10:Core/Src/sd_intf.c **** void log_printf(const char* fmt, ...) {
  34              		.loc 1 10 39 view -0
  35              		.cfi_startproc
  36              		@ args = 4, pretend = 16, frame = 1032
  37              		@ frame_needed = 0, uses_anonymous_args = 1
  38              		.loc 1 10 39 is_stmt 0 view .LVU1
  39 0000 0FB4     		push	{r0, r1, r2, r3}
  40              	.LCFI0:
  41              		.cfi_def_cfa_offset 16
  42              		.cfi_offset 0, -16
  43              		.cfi_offset 1, -12
  44              		.cfi_offset 2, -8
  45              		.cfi_offset 3, -4
  46 0002 30B5     		push	{r4, r5, lr}
  47              	.LCFI1:
  48              		.cfi_def_cfa_offset 28
ARM GAS  /var/folders/gv/t2w3mcd17yl2fynvjl120d0m0000gn/T//ccqMz1D7.s 			page 2


  49              		.cfi_offset 4, -28
  50              		.cfi_offset 5, -24
  51              		.cfi_offset 14, -20
  52 0004 ADF20C4D 		subw	sp, sp, #1036
  53              	.LCFI2:
  54              		.cfi_def_cfa_offset 1064
  55 0008 0DF58362 		add	r2, sp, #1048
  56 000c 52F8041B 		ldr	r1, [r2], #4
  11:Core/Src/sd_intf.c **** 	char buf[1024];
  57              		.loc 1 11 2 is_stmt 1 view .LVU2
  12:Core/Src/sd_intf.c **** 
  13:Core/Src/sd_intf.c **** 	va_list args;
  58              		.loc 1 13 2 view .LVU3
  14:Core/Src/sd_intf.c **** 
  15:Core/Src/sd_intf.c **** 	va_start(args,fmt);
  59              		.loc 1 15 2 view .LVU4
  60 0010 0192     		str	r2, [sp, #4]
  16:Core/Src/sd_intf.c **** 	vsprintf(buf,fmt,args);
  61              		.loc 1 16 2 view .LVU5
  62 0012 02AC     		add	r4, sp, #8
  63 0014 2046     		mov	r0, r4
  64 0016 FFF7FEFF 		bl	vsprintf
  65              	.LVL1:
  17:Core/Src/sd_intf.c **** 	va_end(args);
  66              		.loc 1 17 2 view .LVU6
  18:Core/Src/sd_intf.c **** 
  19:Core/Src/sd_intf.c **** 	FRESULT open_success = f_open(&sdLog, log_path, FA_OPEN_APPEND|FA_WRITE);
  67              		.loc 1 19 2 view .LVU7
  68              		.loc 1 19 25 is_stmt 0 view .LVU8
  69 001a 0E4D     		ldr	r5, .L3
  70 001c 3222     		movs	r2, #50
  71 001e 0E49     		ldr	r1, .L3+4
  72 0020 2846     		mov	r0, r5
  73 0022 FFF7FEFF 		bl	f_open
  74              	.LVL2:
  20:Core/Src/sd_intf.c **** 	f_write(&sdLog, buf, strlen(buf), NULL);
  75              		.loc 1 20 2 is_stmt 1 view .LVU9
  76              		.loc 1 20 23 is_stmt 0 view .LVU10
  77 0026 2046     		mov	r0, r4
  78 0028 FFF7FEFF 		bl	strlen
  79              	.LVL3:
  80 002c 0246     		mov	r2, r0
  81              		.loc 1 20 2 discriminator 1 view .LVU11
  82 002e 0023     		movs	r3, #0
  83 0030 2146     		mov	r1, r4
  84 0032 2846     		mov	r0, r5
  85 0034 FFF7FEFF 		bl	f_write
  86              	.LVL4:
  21:Core/Src/sd_intf.c **** 	f_close(&sdLog);
  87              		.loc 1 21 2 is_stmt 1 view .LVU12
  88 0038 2846     		mov	r0, r5
  89 003a FFF7FEFF 		bl	f_close
  90              	.LVL5:
  22:Core/Src/sd_intf.c **** 
  23:Core/Src/sd_intf.c **** 	printf("%s",buf);
  91              		.loc 1 23 2 view .LVU13
  92 003e 2146     		mov	r1, r4
ARM GAS  /var/folders/gv/t2w3mcd17yl2fynvjl120d0m0000gn/T//ccqMz1D7.s 			page 3


  93 0040 0648     		ldr	r0, .L3+8
  94 0042 FFF7FEFF 		bl	printf
  95              	.LVL6:
  24:Core/Src/sd_intf.c **** }
  96              		.loc 1 24 1 is_stmt 0 view .LVU14
  97 0046 0DF20C4D 		addw	sp, sp, #1036
  98              	.LCFI3:
  99              		.cfi_def_cfa_offset 28
 100              		@ sp needed
 101 004a BDE83040 		pop	{r4, r5, lr}
 102              	.LCFI4:
 103              		.cfi_restore 14
 104              		.cfi_restore 5
 105              		.cfi_restore 4
 106              		.cfi_def_cfa_offset 16
 107 004e 04B0     		add	sp, sp, #16
 108              	.LCFI5:
 109              		.cfi_restore 3
 110              		.cfi_restore 2
 111              		.cfi_restore 1
 112              		.cfi_restore 0
 113              		.cfi_def_cfa_offset 0
 114 0050 7047     		bx	lr
 115              	.L4:
 116 0052 00BF     		.align	2
 117              	.L3:
 118 0054 00000000 		.word	sdLog
 119 0058 00000000 		.word	log_path
 120 005c 00000000 		.word	.LC0
 121              		.cfi_endproc
 122              	.LFE236:
 124              		.section	.rodata.initSD.str1.4,"aMS",%progbits,1
 125              		.align	2
 126              	.LC1:
 127 0000 4661696C 		.ascii	"Failed to initialize SD Card: err %i\012\000"
 127      65642074 
 127      6F20696E 
 127      69746961 
 127      6C697A65 
 128              		.section	.text.initSD,"ax",%progbits
 129              		.align	1
 130              		.global	initSD
 131              		.syntax unified
 132              		.thumb
 133              		.thumb_func
 135              	initSD:
 136              	.LFB237:
  25:Core/Src/sd_intf.c **** 
  26:Core/Src/sd_intf.c **** void initSD() {
 137              		.loc 1 26 15 is_stmt 1 view -0
 138              		.cfi_startproc
 139              		@ args = 0, pretend = 0, frame = 0
 140              		@ frame_needed = 0, uses_anonymous_args = 0
 141 0000 08B5     		push	{r3, lr}
 142              	.LCFI6:
 143              		.cfi_def_cfa_offset 8
 144              		.cfi_offset 3, -8
ARM GAS  /var/folders/gv/t2w3mcd17yl2fynvjl120d0m0000gn/T//ccqMz1D7.s 			page 4


 145              		.cfi_offset 14, -4
  27:Core/Src/sd_intf.c ****     FRESULT mount_success = f_mount(&SDFatFS, (TCHAR const*)SDPath, 1);
 146              		.loc 1 27 5 view .LVU16
 147              		.loc 1 27 29 is_stmt 0 view .LVU17
 148 0002 0122     		movs	r2, #1
 149 0004 0649     		ldr	r1, .L9
 150 0006 0748     		ldr	r0, .L9+4
 151 0008 FFF7FEFF 		bl	f_mount
 152              	.LVL7:
  28:Core/Src/sd_intf.c ****     if (mount_success != FR_OK) {
 153              		.loc 1 28 5 is_stmt 1 view .LVU18
 154              		.loc 1 28 8 is_stmt 0 view .LVU19
 155 000c 00B9     		cbnz	r0, .L8
 156              	.LVL8:
 157              	.L5:
  29:Core/Src/sd_intf.c ****       printf("Failed to initialize SD Card: err %i\n",mount_success);
  30:Core/Src/sd_intf.c ****       Error_Handler();
  31:Core/Src/sd_intf.c ****     }
  32:Core/Src/sd_intf.c **** }
 158              		.loc 1 32 1 view .LVU20
 159 000e 08BD     		pop	{r3, pc}
 160              	.LVL9:
 161              	.L8:
 162              		.loc 1 32 1 view .LVU21
 163 0010 0146     		mov	r1, r0
  29:Core/Src/sd_intf.c ****       printf("Failed to initialize SD Card: err %i\n",mount_success);
 164              		.loc 1 29 7 is_stmt 1 view .LVU22
 165 0012 0548     		ldr	r0, .L9+8
 166              	.LVL10:
  29:Core/Src/sd_intf.c ****       printf("Failed to initialize SD Card: err %i\n",mount_success);
 167              		.loc 1 29 7 is_stmt 0 view .LVU23
 168 0014 FFF7FEFF 		bl	printf
 169              	.LVL11:
  30:Core/Src/sd_intf.c ****     }
 170              		.loc 1 30 7 is_stmt 1 view .LVU24
 171 0018 FFF7FEFF 		bl	Error_Handler
 172              	.LVL12:
 173              		.loc 1 32 1 is_stmt 0 view .LVU25
 174 001c F7E7     		b	.L5
 175              	.L10:
 176 001e 00BF     		.align	2
 177              	.L9:
 178 0020 00000000 		.word	SDPath
 179 0024 00000000 		.word	SDFatFS
 180 0028 00000000 		.word	.LC1
 181              		.cfi_endproc
 182              	.LFE237:
 184              		.section	.rodata.initSDFiles.str1.4,"aMS",%progbits,1
 185              		.align	2
 186              	.LC3:
 187 0000 4552523A 		.ascii	"ERR: Failed to create data file - error code: %i\015"
 187      20466169 
 187      6C656420 
 187      746F2063 
 187      72656174 
 188 0031 0A00     		.ascii	"\012\000"
 189 0033 00       		.align	2
ARM GAS  /var/folders/gv/t2w3mcd17yl2fynvjl120d0m0000gn/T//ccqMz1D7.s 			page 5


 190              	.LC5:
 191 0034 4552523A 		.ascii	"ERR: Failed to create log - error code: %i\015\012\000"
 191      20466169 
 191      6C656420 
 191      746F2063 
 191      72656174 
 192 0061 000000   		.align	2
 193              	.LC6:
 194 0064 57726974 		.ascii	"Writing to %s and %s\012\000"
 194      696E6720 
 194      746F2025 
 194      7320616E 
 194      64202573 
 195              		.section	.text.initSDFiles,"ax",%progbits
 196              		.align	1
 197              		.global	initSDFiles
 198              		.syntax unified
 199              		.thumb
 200              		.thumb_func
 202              	initSDFiles:
 203              	.LFB238:
  33:Core/Src/sd_intf.c **** 
  34:Core/Src/sd_intf.c **** void initSDFiles() {
 204              		.loc 1 34 20 is_stmt 1 view -0
 205              		.cfi_startproc
 206              		@ args = 0, pretend = 0, frame = 0
 207              		@ frame_needed = 0, uses_anonymous_args = 0
 208 0000 38B5     		push	{r3, r4, r5, lr}
 209              	.LCFI7:
 210              		.cfi_def_cfa_offset 16
 211              		.cfi_offset 3, -16
 212              		.cfi_offset 4, -12
 213              		.cfi_offset 5, -8
 214              		.cfi_offset 14, -4
  35:Core/Src/sd_intf.c ****   FRESULT data_res;
 215              		.loc 1 35 3 view .LVU27
  36:Core/Src/sd_intf.c **** 	int data_num = 0;
 216              		.loc 1 36 2 view .LVU28
 217              	.LVL13:
 218              		.loc 1 36 6 is_stmt 0 view .LVU29
 219 0002 0024     		movs	r4, #0
 220              	.LVL14:
 221              	.L12:
  37:Core/Src/sd_intf.c **** 	do {
 222              		.loc 1 37 2 is_stmt 1 view .LVU30
  38:Core/Src/sd_intf.c **** 		sprintf(data_path,"test_data%i.bin\0",data_num);
 223              		.loc 1 38 3 view .LVU31
 224 0004 1C4D     		ldr	r5, .L19
 225 0006 2246     		mov	r2, r4
 226 0008 1C49     		ldr	r1, .L19+4
 227 000a 2846     		mov	r0, r5
 228 000c FFF7FEFF 		bl	sprintf
 229              	.LVL15:
  39:Core/Src/sd_intf.c **** 		//printf("Trying %s\r\n",log_path);
  40:Core/Src/sd_intf.c **** 		data_res = f_open(&sdData, data_path, FA_CREATE_NEW | FA_WRITE);
 230              		.loc 1 40 3 view .LVU32
 231              		.loc 1 40 14 is_stmt 0 view .LVU33
ARM GAS  /var/folders/gv/t2w3mcd17yl2fynvjl120d0m0000gn/T//ccqMz1D7.s 			page 6


 232 0010 0622     		movs	r2, #6
 233 0012 2946     		mov	r1, r5
 234 0014 1A48     		ldr	r0, .L19+8
 235 0016 FFF7FEFF 		bl	f_open
 236              	.LVL16:
  41:Core/Src/sd_intf.c **** 		data_num++;
 237              		.loc 1 41 3 is_stmt 1 view .LVU34
 238              		.loc 1 41 11 is_stmt 0 view .LVU35
 239 001a 0134     		adds	r4, r4, #1
 240              	.LVL17:
  42:Core/Src/sd_intf.c **** 
  43:Core/Src/sd_intf.c **** 	} while (data_res == FR_EXIST); // continue until file doesnt exist
 241              		.loc 1 43 20 is_stmt 1 discriminator 1 view .LVU36
 242 001c 0828     		cmp	r0, #8
 243 001e F1D0     		beq	.L12
  44:Core/Src/sd_intf.c **** 	if (data_res != FR_OK) {
 244              		.loc 1 44 2 view .LVU37
 245              		.loc 1 44 5 is_stmt 0 view .LVU38
 246 0020 D8B9     		cbnz	r0, .L17
 247              	.LVL18:
 248              	.L13:
  45:Core/Src/sd_intf.c **** 		log_printf("ERR: Failed to create data file - error code: %i\r\n",data_res);
  46:Core/Src/sd_intf.c **** 		Error_Handler();
  47:Core/Src/sd_intf.c **** 	}
  48:Core/Src/sd_intf.c ****   f_close(&sdData);
 249              		.loc 1 48 3 is_stmt 1 view .LVU39
 250 0022 1748     		ldr	r0, .L19+8
 251 0024 FFF7FEFF 		bl	f_close
 252              	.LVL19:
  49:Core/Src/sd_intf.c **** 
  50:Core/Src/sd_intf.c ****   FRESULT log_res;
 253              		.loc 1 50 3 view .LVU40
  51:Core/Src/sd_intf.c **** 	int log_num = 0;
 254              		.loc 1 51 2 view .LVU41
 255              		.loc 1 51 6 is_stmt 0 view .LVU42
 256 0028 0024     		movs	r4, #0
 257              	.LVL20:
 258              	.L14:
  52:Core/Src/sd_intf.c **** 	do {
 259              		.loc 1 52 2 is_stmt 1 view .LVU43
  53:Core/Src/sd_intf.c **** 		sprintf(log_path,"test_log%i.txt\0",log_num);
 260              		.loc 1 53 3 view .LVU44
 261 002a 164D     		ldr	r5, .L19+12
 262 002c 2246     		mov	r2, r4
 263 002e 1649     		ldr	r1, .L19+16
 264 0030 2846     		mov	r0, r5
 265 0032 FFF7FEFF 		bl	sprintf
 266              	.LVL21:
  54:Core/Src/sd_intf.c **** 		//printf("Trying %s\r\n",log_path);
  55:Core/Src/sd_intf.c **** 		log_res = f_open(&sdLog, log_path, FA_CREATE_NEW | FA_WRITE);
 267              		.loc 1 55 3 view .LVU45
 268              		.loc 1 55 13 is_stmt 0 view .LVU46
 269 0036 0622     		movs	r2, #6
 270 0038 2946     		mov	r1, r5
 271 003a 1448     		ldr	r0, .L19+20
 272 003c FFF7FEFF 		bl	f_open
 273              	.LVL22:
ARM GAS  /var/folders/gv/t2w3mcd17yl2fynvjl120d0m0000gn/T//ccqMz1D7.s 			page 7


  56:Core/Src/sd_intf.c **** 		log_num++;
 274              		.loc 1 56 3 is_stmt 1 view .LVU47
 275              		.loc 1 56 10 is_stmt 0 view .LVU48
 276 0040 0134     		adds	r4, r4, #1
 277              	.LVL23:
  57:Core/Src/sd_intf.c **** 
  58:Core/Src/sd_intf.c **** 	} while (log_res == FR_EXIST); // continue until file doesnt exist
 278              		.loc 1 58 19 is_stmt 1 discriminator 1 view .LVU49
 279 0042 0828     		cmp	r0, #8
 280 0044 F1D0     		beq	.L14
  59:Core/Src/sd_intf.c **** 	if (log_res != FR_OK) {
 281              		.loc 1 59 2 view .LVU50
 282              		.loc 1 59 5 is_stmt 0 view .LVU51
 283 0046 78B9     		cbnz	r0, .L18
 284              	.LVL24:
 285              	.L15:
  60:Core/Src/sd_intf.c **** 		printf("ERR: Failed to create log - error code: %i\r\n",log_res);
  61:Core/Src/sd_intf.c **** 		Error_Handler();
  62:Core/Src/sd_intf.c **** 	}
  63:Core/Src/sd_intf.c **** 	f_close(&sdLog);
 286              		.loc 1 63 2 is_stmt 1 view .LVU52
 287 0048 1048     		ldr	r0, .L19+20
 288 004a FFF7FEFF 		bl	f_close
 289              	.LVL25:
  64:Core/Src/sd_intf.c ****   printf("Writing to %s and %s\n", data_path, log_path);
 290              		.loc 1 64 3 view .LVU53
 291 004e 0D4A     		ldr	r2, .L19+12
 292 0050 0949     		ldr	r1, .L19
 293 0052 0F48     		ldr	r0, .L19+24
 294 0054 FFF7FEFF 		bl	printf
 295              	.LVL26:
  65:Core/Src/sd_intf.c **** }
 296              		.loc 1 65 1 is_stmt 0 view .LVU54
 297 0058 38BD     		pop	{r3, r4, r5, pc}
 298              	.LVL27:
 299              	.L17:
  45:Core/Src/sd_intf.c **** 		Error_Handler();
 300              		.loc 1 45 3 is_stmt 1 view .LVU55
 301 005a 0146     		mov	r1, r0
 302 005c 0D48     		ldr	r0, .L19+28
 303              	.LVL28:
  45:Core/Src/sd_intf.c **** 		Error_Handler();
 304              		.loc 1 45 3 is_stmt 0 view .LVU56
 305 005e FFF7FEFF 		bl	log_printf
 306              	.LVL29:
  46:Core/Src/sd_intf.c **** 	}
 307              		.loc 1 46 3 is_stmt 1 view .LVU57
 308 0062 FFF7FEFF 		bl	Error_Handler
 309              	.LVL30:
 310 0066 DCE7     		b	.L13
 311              	.LVL31:
 312              	.L18:
  60:Core/Src/sd_intf.c **** 		Error_Handler();
 313              		.loc 1 60 3 view .LVU58
 314 0068 0146     		mov	r1, r0
 315 006a 0B48     		ldr	r0, .L19+32
 316              	.LVL32:
ARM GAS  /var/folders/gv/t2w3mcd17yl2fynvjl120d0m0000gn/T//ccqMz1D7.s 			page 8


  60:Core/Src/sd_intf.c **** 		Error_Handler();
 317              		.loc 1 60 3 is_stmt 0 view .LVU59
 318 006c FFF7FEFF 		bl	printf
 319              	.LVL33:
  61:Core/Src/sd_intf.c **** 	}
 320              		.loc 1 61 3 is_stmt 1 view .LVU60
 321 0070 FFF7FEFF 		bl	Error_Handler
 322              	.LVL34:
 323 0074 E8E7     		b	.L15
 324              	.L20:
 325 0076 00BF     		.align	2
 326              	.L19:
 327 0078 00000000 		.word	data_path
 328 007c 00000000 		.word	.LANCHOR0
 329 0080 00000000 		.word	sdData
 330 0084 00000000 		.word	log_path
 331 0088 14000000 		.word	.LANCHOR0+20
 332 008c 00000000 		.word	sdLog
 333 0090 64000000 		.word	.LC6
 334 0094 00000000 		.word	.LC3
 335 0098 34000000 		.word	.LC5
 336              		.cfi_endproc
 337              	.LFE238:
 339              		.section	.text.writePacket,"ax",%progbits
 340              		.align	1
 341              		.global	writePacket
 342              		.syntax unified
 343              		.thumb
 344              		.thumb_func
 346              	writePacket:
 347              	.LFB239:
  66:Core/Src/sd_intf.c **** 
  67:Core/Src/sd_intf.c **** int writePacket(packet p) {
 348              		.loc 1 67 27 view -0
 349              		.cfi_startproc
 350              		@ args = 20, pretend = 16, frame = 0
 351              		@ frame_needed = 0, uses_anonymous_args = 0
 352 0000 84B0     		sub	sp, sp, #16
 353              	.LCFI8:
 354              		.cfi_def_cfa_offset 16
 355 0002 08B5     		push	{r3, lr}
 356              	.LCFI9:
 357              		.cfi_def_cfa_offset 24
 358              		.cfi_offset 3, -24
 359              		.cfi_offset 14, -20
 360 0004 0DF1080C 		add	ip, sp, #8
 361 0008 8CE80F00 		stm	ip, {r0, r1, r2, r3}
  68:Core/Src/sd_intf.c ****   int res = FR_OK;
 362              		.loc 1 68 3 view .LVU62
 363              	.LVL35:
  69:Core/Src/sd_intf.c ****   res = f_open(&sdData, data_path, FA_WRITE | FA_OPEN_APPEND);
 364              		.loc 1 69 3 view .LVU63
 365              		.loc 1 69 9 is_stmt 0 view .LVU64
 366 000c 3222     		movs	r2, #50
 367 000e 1B49     		ldr	r1, .L26
 368 0010 1B48     		ldr	r0, .L26+4
 369 0012 FFF7FEFF 		bl	f_open
ARM GAS  /var/folders/gv/t2w3mcd17yl2fynvjl120d0m0000gn/T//ccqMz1D7.s 			page 9


 370              	.LVL36:
  70:Core/Src/sd_intf.c ****   if (res != FR_OK) {
 371              		.loc 1 70 3 is_stmt 1 view .LVU65
 372              		.loc 1 70 6 is_stmt 0 view .LVU66
 373 0016 18B1     		cbz	r0, .L25
 374              	.LVL37:
 375              	.L21:
  71:Core/Src/sd_intf.c ****     return res;
  72:Core/Src/sd_intf.c ****   }
  73:Core/Src/sd_intf.c ****   res = f_write(&sdData, &p.type, sizeof(packet_type), nullptr);
  74:Core/Src/sd_intf.c ****   if (res != FR_OK) {
  75:Core/Src/sd_intf.c ****     return res;
  76:Core/Src/sd_intf.c ****   }
  77:Core/Src/sd_intf.c ****   res = f_write(&sdData, &p.timestamp, sizeof(uint32_t), nullptr);
  78:Core/Src/sd_intf.c ****   if (res != FR_OK) {
  79:Core/Src/sd_intf.c ****     return res;
  80:Core/Src/sd_intf.c ****   }
  81:Core/Src/sd_intf.c ****   res = f_write(&sdData, &p.rtcTimestamp, sizeof(uint32_t), nullptr);
  82:Core/Src/sd_intf.c ****   if (res != FR_OK) {
  83:Core/Src/sd_intf.c ****     return res;
  84:Core/Src/sd_intf.c ****   }
  85:Core/Src/sd_intf.c ****   res = f_write(&sdData, &p.len, sizeof(uint32_t), nullptr);
  86:Core/Src/sd_intf.c ****   if (res != FR_OK) {
  87:Core/Src/sd_intf.c ****     return res;
  88:Core/Src/sd_intf.c ****   }
  89:Core/Src/sd_intf.c ****   if (p.len > 0) {
  90:Core/Src/sd_intf.c ****     res = f_write(&sdData, p.payload, p.len * sizeof(uint8_t), nullptr);
  91:Core/Src/sd_intf.c ****     if (res != FR_OK) {
  92:Core/Src/sd_intf.c ****       return res;
  93:Core/Src/sd_intf.c ****     }
  94:Core/Src/sd_intf.c ****   }
  95:Core/Src/sd_intf.c ****   res = f_close(&sdData);
  96:Core/Src/sd_intf.c ****   return res;
  97:Core/Src/sd_intf.c **** }
 376              		.loc 1 97 1 view .LVU67
 377 0018 BDE80840 		pop	{r3, lr}
 378              	.LCFI10:
 379              		.cfi_remember_state
 380              		.cfi_restore 14
 381              		.cfi_restore 3
 382              		.cfi_def_cfa_offset 16
 383 001c 04B0     		add	sp, sp, #16
 384              	.LCFI11:
 385              		.cfi_def_cfa_offset 0
 386 001e 7047     		bx	lr
 387              	.LVL38:
 388              	.L25:
 389              	.LCFI12:
 390              		.cfi_restore_state
 391              		.loc 1 97 1 view .LVU68
 392 0020 0346     		mov	r3, r0
  73:Core/Src/sd_intf.c ****   if (res != FR_OK) {
 393              		.loc 1 73 3 is_stmt 1 view .LVU69
  73:Core/Src/sd_intf.c ****   if (res != FR_OK) {
 394              		.loc 1 73 9 is_stmt 0 view .LVU70
 395 0022 0122     		movs	r2, #1
 396 0024 02A9     		add	r1, sp, #8
ARM GAS  /var/folders/gv/t2w3mcd17yl2fynvjl120d0m0000gn/T//ccqMz1D7.s 			page 10


 397 0026 1648     		ldr	r0, .L26+4
 398              	.LVL39:
  73:Core/Src/sd_intf.c ****   if (res != FR_OK) {
 399              		.loc 1 73 9 view .LVU71
 400 0028 FFF7FEFF 		bl	f_write
 401              	.LVL40:
  73:Core/Src/sd_intf.c ****   if (res != FR_OK) {
 402              		.loc 1 73 9 view .LVU72
 403 002c 0346     		mov	r3, r0
 404              	.LVL41:
  74:Core/Src/sd_intf.c ****     return res;
 405              		.loc 1 74 3 is_stmt 1 view .LVU73
  74:Core/Src/sd_intf.c ****     return res;
 406              		.loc 1 74 6 is_stmt 0 view .LVU74
 407 002e 0028     		cmp	r0, #0
 408 0030 F2D1     		bne	.L21
  77:Core/Src/sd_intf.c ****   if (res != FR_OK) {
 409              		.loc 1 77 3 is_stmt 1 view .LVU75
  77:Core/Src/sd_intf.c ****   if (res != FR_OK) {
 410              		.loc 1 77 9 is_stmt 0 view .LVU76
 411 0032 0422     		movs	r2, #4
 412 0034 03A9     		add	r1, sp, #12
 413 0036 1248     		ldr	r0, .L26+4
 414              	.LVL42:
  77:Core/Src/sd_intf.c ****   if (res != FR_OK) {
 415              		.loc 1 77 9 view .LVU77
 416 0038 FFF7FEFF 		bl	f_write
 417              	.LVL43:
  77:Core/Src/sd_intf.c ****   if (res != FR_OK) {
 418              		.loc 1 77 9 view .LVU78
 419 003c 0346     		mov	r3, r0
 420              	.LVL44:
  78:Core/Src/sd_intf.c ****     return res;
 421              		.loc 1 78 3 is_stmt 1 view .LVU79
  78:Core/Src/sd_intf.c ****     return res;
 422              		.loc 1 78 6 is_stmt 0 view .LVU80
 423 003e 0028     		cmp	r0, #0
 424 0040 EAD1     		bne	.L21
  81:Core/Src/sd_intf.c ****   if (res != FR_OK) {
 425              		.loc 1 81 3 is_stmt 1 view .LVU81
  81:Core/Src/sd_intf.c ****   if (res != FR_OK) {
 426              		.loc 1 81 9 is_stmt 0 view .LVU82
 427 0042 0422     		movs	r2, #4
 428 0044 04A9     		add	r1, sp, #16
 429 0046 0E48     		ldr	r0, .L26+4
 430              	.LVL45:
  81:Core/Src/sd_intf.c ****   if (res != FR_OK) {
 431              		.loc 1 81 9 view .LVU83
 432 0048 FFF7FEFF 		bl	f_write
 433              	.LVL46:
  81:Core/Src/sd_intf.c ****   if (res != FR_OK) {
 434              		.loc 1 81 9 view .LVU84
 435 004c 0346     		mov	r3, r0
 436              	.LVL47:
  82:Core/Src/sd_intf.c ****     return res;
 437              		.loc 1 82 3 is_stmt 1 view .LVU85
  82:Core/Src/sd_intf.c ****     return res;
ARM GAS  /var/folders/gv/t2w3mcd17yl2fynvjl120d0m0000gn/T//ccqMz1D7.s 			page 11


 438              		.loc 1 82 6 is_stmt 0 view .LVU86
 439 004e 0028     		cmp	r0, #0
 440 0050 E2D1     		bne	.L21
  85:Core/Src/sd_intf.c ****   if (res != FR_OK) {
 441              		.loc 1 85 3 is_stmt 1 view .LVU87
  85:Core/Src/sd_intf.c ****   if (res != FR_OK) {
 442              		.loc 1 85 9 is_stmt 0 view .LVU88
 443 0052 0422     		movs	r2, #4
 444 0054 05A9     		add	r1, sp, #20
 445 0056 0A48     		ldr	r0, .L26+4
 446              	.LVL48:
  85:Core/Src/sd_intf.c ****   if (res != FR_OK) {
 447              		.loc 1 85 9 view .LVU89
 448 0058 FFF7FEFF 		bl	f_write
 449              	.LVL49:
  85:Core/Src/sd_intf.c ****   if (res != FR_OK) {
 450              		.loc 1 85 9 view .LVU90
 451 005c 0346     		mov	r3, r0
 452              	.LVL50:
  86:Core/Src/sd_intf.c ****     return res;
 453              		.loc 1 86 3 is_stmt 1 view .LVU91
  86:Core/Src/sd_intf.c ****     return res;
 454              		.loc 1 86 6 is_stmt 0 view .LVU92
 455 005e 0028     		cmp	r0, #0
 456 0060 DAD1     		bne	.L21
  89:Core/Src/sd_intf.c ****     res = f_write(&sdData, p.payload, p.len * sizeof(uint8_t), nullptr);
 457              		.loc 1 89 3 is_stmt 1 view .LVU93
  89:Core/Src/sd_intf.c ****     res = f_write(&sdData, p.payload, p.len * sizeof(uint8_t), nullptr);
 458              		.loc 1 89 8 is_stmt 0 view .LVU94
 459 0062 059A     		ldr	r2, [sp, #20]
  89:Core/Src/sd_intf.c ****     res = f_write(&sdData, p.payload, p.len * sizeof(uint8_t), nullptr);
 460              		.loc 1 89 6 view .LVU95
 461 0064 2AB1     		cbz	r2, .L23
  90:Core/Src/sd_intf.c ****     if (res != FR_OK) {
 462              		.loc 1 90 5 is_stmt 1 view .LVU96
  90:Core/Src/sd_intf.c ****     if (res != FR_OK) {
 463              		.loc 1 90 11 is_stmt 0 view .LVU97
 464 0066 0699     		ldr	r1, [sp, #24]
 465 0068 0548     		ldr	r0, .L26+4
 466              	.LVL51:
  90:Core/Src/sd_intf.c ****     if (res != FR_OK) {
 467              		.loc 1 90 11 view .LVU98
 468 006a FFF7FEFF 		bl	f_write
 469              	.LVL52:
  91:Core/Src/sd_intf.c ****       return res;
 470              		.loc 1 91 5 is_stmt 1 view .LVU99
  91:Core/Src/sd_intf.c ****       return res;
 471              		.loc 1 91 8 is_stmt 0 view .LVU100
 472 006e 0028     		cmp	r0, #0
 473 0070 D2D1     		bne	.L21
 474              	.L23:
  95:Core/Src/sd_intf.c ****   return res;
 475              		.loc 1 95 3 is_stmt 1 view .LVU101
  95:Core/Src/sd_intf.c ****   return res;
 476              		.loc 1 95 9 is_stmt 0 view .LVU102
 477 0072 0348     		ldr	r0, .L26+4
 478              	.LVL53:
ARM GAS  /var/folders/gv/t2w3mcd17yl2fynvjl120d0m0000gn/T//ccqMz1D7.s 			page 12


  95:Core/Src/sd_intf.c ****   return res;
 479              		.loc 1 95 9 view .LVU103
 480 0074 FFF7FEFF 		bl	f_close
 481              	.LVL54:
  96:Core/Src/sd_intf.c **** }
 482              		.loc 1 96 3 is_stmt 1 view .LVU104
  96:Core/Src/sd_intf.c **** }
 483              		.loc 1 96 10 is_stmt 0 view .LVU105
 484 0078 CEE7     		b	.L21
 485              	.L27:
 486 007a 00BF     		.align	2
 487              	.L26:
 488 007c 00000000 		.word	data_path
 489 0080 00000000 		.word	sdData
 490              		.cfi_endproc
 491              	.LFE239:
 493              		.section	.text.BSP_SD_IsDetected,"ax",%progbits
 494              		.align	1
 495              		.global	BSP_SD_IsDetected
 496              		.syntax unified
 497              		.thumb
 498              		.thumb_func
 500              	BSP_SD_IsDetected:
 501              	.LFB240:
  98:Core/Src/sd_intf.c **** 
  99:Core/Src/sd_intf.c **** uint8_t BSP_SD_IsDetected(void)
 100:Core/Src/sd_intf.c **** {
 502              		.loc 1 100 1 is_stmt 1 view -0
 503              		.cfi_startproc
 504              		@ args = 0, pretend = 0, frame = 8
 505              		@ frame_needed = 0, uses_anonymous_args = 0
 506 0000 00B5     		push	{lr}
 507              	.LCFI13:
 508              		.cfi_def_cfa_offset 4
 509              		.cfi_offset 14, -4
 510 0002 83B0     		sub	sp, sp, #12
 511              	.LCFI14:
 512              		.cfi_def_cfa_offset 16
 101:Core/Src/sd_intf.c ****   __IO uint8_t status = SD_PRESENT;
 513              		.loc 1 101 3 view .LVU107
 514              		.loc 1 101 16 is_stmt 0 view .LVU108
 515 0004 0123     		movs	r3, #1
 516 0006 8DF80730 		strb	r3, [sp, #7]
 102:Core/Src/sd_intf.c **** 
 103:Core/Src/sd_intf.c ****   if (HAL_GPIO_ReadPin(SD_DETECT_GPIO_PORT, SD_DETECT_PIN)== 0x1) //SD switch is inverted
 517              		.loc 1 103 3 is_stmt 1 view .LVU109
 518              		.loc 1 103 7 is_stmt 0 view .LVU110
 519 000a 4FF48061 		mov	r1, #1024
 520 000e 4FF09040 		mov	r0, #1207959552
 521 0012 FFF7FEFF 		bl	HAL_GPIO_ReadPin
 522              	.LVL55:
 523              		.loc 1 103 6 discriminator 1 view .LVU111
 524 0016 0128     		cmp	r0, #1
 525 0018 03D0     		beq	.L31
 526              	.L29:
 104:Core/Src/sd_intf.c ****   {
 105:Core/Src/sd_intf.c ****     status = SD_NOT_PRESENT;
ARM GAS  /var/folders/gv/t2w3mcd17yl2fynvjl120d0m0000gn/T//ccqMz1D7.s 			page 13


 106:Core/Src/sd_intf.c ****   }
 107:Core/Src/sd_intf.c **** 
 108:Core/Src/sd_intf.c ****   return status;
 527              		.loc 1 108 3 is_stmt 1 view .LVU112
 528              		.loc 1 108 10 is_stmt 0 view .LVU113
 529 001a 9DF80700 		ldrb	r0, [sp, #7]	@ zero_extendqisi2
 109:Core/Src/sd_intf.c **** }...
 530              		.loc 1 109 1 view .LVU114
 531 001e 03B0     		add	sp, sp, #12
 532              	.LCFI15:
 533              		.cfi_remember_state
 534              		.cfi_def_cfa_offset 4
 535              		@ sp needed
 536 0020 00BD     		pop	{pc}
 537              	.L31:
 538              	.LCFI16:
 539              		.cfi_restore_state
 105:Core/Src/sd_intf.c ****     status = SD_NOT_PRESENT;
 540              		.loc 1 105 5 is_stmt 1 view .LVU115
 105:Core/Src/sd_intf.c ****     status = SD_NOT_PRESENT;
 541              		.loc 1 105 12 is_stmt 0 view .LVU116
 542 0022 0023     		movs	r3, #0
 543 0024 8DF80730 		strb	r3, [sp, #7]
 544 0028 F7E7     		b	.L29
 545              		.cfi_endproc
 546              	.LFE240:
 548              		.global	log_path
 549              		.section	.bss.log_path,"aw",%nobits
 550              		.align	2
 553              	log_path:
 554 0000 00000000 		.space	256
 554      00000000 
 554      00000000 
 554      00000000 
 554      00000000 
 555              		.global	data_path
 556              		.section	.bss.data_path,"aw",%nobits
 557              		.align	2
 560              	data_path:
 561 0000 00000000 		.space	256
 561      00000000 
 561      00000000 
 561      00000000 
 561      00000000 
 562              		.global	sdLog
 563              		.section	.bss.sdLog,"aw",%nobits
 564              		.align	3
 567              	sdLog:
 568 0000 00000000 		.space	600
 568      00000000 
 568      00000000 
 568      00000000 
 568      00000000 
 569              		.global	sdData
 570              		.section	.bss.sdData,"aw",%nobits
 571              		.align	3
 574              	sdData:
ARM GAS  /var/folders/gv/t2w3mcd17yl2fynvjl120d0m0000gn/T//ccqMz1D7.s 			page 14


 575 0000 00000000 		.space	600
 575      00000000 
 575      00000000 
 575      00000000 
 575      00000000 
 576              		.section	.rodata
 577              		.align	2
 578              		.set	.LANCHOR0,. + 0
 579              	.LC2:
 580 0000 74657374 		.ascii	"test_data%i.bin\000\000"
 580      5F646174 
 580      6125692E 
 580      62696E00 
 580      00
 581 0011 000000   		.space	3
 582              	.LC4:
 583 0014 74657374 		.ascii	"test_log%i.txt\000\000"
 583      5F6C6F67 
 583      25692E74 
 583      78740000 
 584              		.text
 585              	.Letext0:
 586              		.file 2 "/Applications/ArmGNUToolchain/15.2.rel1/arm-none-eabi/arm-none-eabi/include/machine/_defa
 587              		.file 3 "/Applications/ArmGNUToolchain/15.2.rel1/arm-none-eabi/lib/gcc/arm-none-eabi/15.2.1/includ
 588              		.file 4 "/Applications/ArmGNUToolchain/15.2.rel1/arm-none-eabi/lib/gcc/arm-none-eabi/15.2.1/includ
 589              		.file 5 "/Applications/ArmGNUToolchain/15.2.rel1/arm-none-eabi/arm-none-eabi/include/stdio.h"
 590              		.file 6 "/Applications/ArmGNUToolchain/15.2.rel1/arm-none-eabi/arm-none-eabi/include/sys/_stdint.h
 591              		.file 7 "Middlewares/Third_Party/FatFs/src/integer.h"
 592              		.file 8 "Drivers/CMSIS/Device/ST/STM32L4xx/Include/stm32l476xx.h"
 593              		.file 9 "Drivers/STM32L4xx_HAL_Driver/Inc/stm32l4xx_hal_gpio.h"
 594              		.file 10 "Middlewares/Third_Party/FatFs/src/ff.h"
 595              		.file 11 "FATFS/App/fatfs.h"
 596              		.file 12 "Core/Inc/sd_intf.h"
 597              		.file 13 "Drivers/STM32L4xx_HAL_Driver/Inc/stm32l4xx_ll_dma.h"
 598              		.file 14 "Core/Inc/datetime.h"
 599              		.file 15 "/Applications/ArmGNUToolchain/15.2.rel1/arm-none-eabi/arm-none-eabi/include/string.h"
 600              		.file 16 "<built-in>"
 601              		.file 17 "Core/Inc/main.h"
ARM GAS  /var/folders/gv/t2w3mcd17yl2fynvjl120d0m0000gn/T//ccqMz1D7.s 			page 15

