ARM GAS  /var/folders/gv/t2w3mcd17yl2fynvjl120d0m0000gn/T//ccHojmlD.s 			page 1


   1              		.cpu cortex-m4
   2              		.arch armv7e-m
   3              		.fpu fpv4-sp-d16
   4              		.eabi_attribute 27, 1
   5              		.eabi_attribute 28, 1
   6              		.eabi_attribute 20, 1
   7              		.eabi_attribute 21, 1
   8              		.eabi_attribute 23, 3
   9              		.eabi_attribute 24, 1
  10              		.eabi_attribute 25, 1
  11              		.eabi_attribute 26, 1
  12              		.eabi_attribute 30, 1
  13              		.eabi_attribute 34, 1
  14              		.eabi_attribute 18, 4
  15              		.file	"stm32l4xx_it.c"
  16              		.text
  17              	.Ltext0:
  18              		.cfi_sections	.debug_frame
  19              		.file 1 "Core/Src/stm32l4xx_it.c"
  20              		.section	.text.NMI_Handler,"ax",%progbits
  21              		.align	1
  22              		.global	NMI_Handler
  23              		.syntax unified
  24              		.thumb
  25              		.thumb_func
  27              	NMI_Handler:
  28              	.LFB228:
   1:Core/Src/stm32l4xx_it.c **** /* USER CODE BEGIN Header */
   2:Core/Src/stm32l4xx_it.c **** /**
   3:Core/Src/stm32l4xx_it.c ****   ******************************************************************************
   4:Core/Src/stm32l4xx_it.c ****   * @file    stm32l4xx_it.c
   5:Core/Src/stm32l4xx_it.c ****   * @brief   Interrupt Service Routines.
   6:Core/Src/stm32l4xx_it.c ****   ******************************************************************************
   7:Core/Src/stm32l4xx_it.c ****   * @attention
   8:Core/Src/stm32l4xx_it.c ****   *
   9:Core/Src/stm32l4xx_it.c ****   * Copyright (c) 2026 STMicroelectronics.
  10:Core/Src/stm32l4xx_it.c ****   * All rights reserved.
  11:Core/Src/stm32l4xx_it.c ****   *
  12:Core/Src/stm32l4xx_it.c ****   * This software is licensed under terms that can be found in the LICENSE file
  13:Core/Src/stm32l4xx_it.c ****   * in the root directory of this software component.
  14:Core/Src/stm32l4xx_it.c ****   * If no LICENSE file comes with this software, it is provided AS-IS.
  15:Core/Src/stm32l4xx_it.c ****   *
  16:Core/Src/stm32l4xx_it.c ****   ******************************************************************************
  17:Core/Src/stm32l4xx_it.c ****   */
  18:Core/Src/stm32l4xx_it.c **** /* USER CODE END Header */
  19:Core/Src/stm32l4xx_it.c **** 
  20:Core/Src/stm32l4xx_it.c **** /* Includes ------------------------------------------------------------------*/
  21:Core/Src/stm32l4xx_it.c **** #include "main.h"
  22:Core/Src/stm32l4xx_it.c **** #include "stm32l4xx_it.h"
  23:Core/Src/stm32l4xx_it.c **** /* Private includes ----------------------------------------------------------*/
  24:Core/Src/stm32l4xx_it.c **** /* USER CODE BEGIN Includes */
  25:Core/Src/stm32l4xx_it.c **** /* USER CODE END Includes */
  26:Core/Src/stm32l4xx_it.c **** 
  27:Core/Src/stm32l4xx_it.c **** /* Private typedef -----------------------------------------------------------*/
  28:Core/Src/stm32l4xx_it.c **** /* USER CODE BEGIN TD */
  29:Core/Src/stm32l4xx_it.c **** 
  30:Core/Src/stm32l4xx_it.c **** /* USER CODE END TD */
ARM GAS  /var/folders/gv/t2w3mcd17yl2fynvjl120d0m0000gn/T//ccHojmlD.s 			page 2


  31:Core/Src/stm32l4xx_it.c **** 
  32:Core/Src/stm32l4xx_it.c **** /* Private define ------------------------------------------------------------*/
  33:Core/Src/stm32l4xx_it.c **** /* USER CODE BEGIN PD */
  34:Core/Src/stm32l4xx_it.c **** 
  35:Core/Src/stm32l4xx_it.c **** /* USER CODE END PD */
  36:Core/Src/stm32l4xx_it.c **** 
  37:Core/Src/stm32l4xx_it.c **** /* Private macro -------------------------------------------------------------*/
  38:Core/Src/stm32l4xx_it.c **** /* USER CODE BEGIN PM */
  39:Core/Src/stm32l4xx_it.c **** 
  40:Core/Src/stm32l4xx_it.c **** /* USER CODE END PM */
  41:Core/Src/stm32l4xx_it.c **** 
  42:Core/Src/stm32l4xx_it.c **** /* Private variables ---------------------------------------------------------*/
  43:Core/Src/stm32l4xx_it.c **** /* USER CODE BEGIN PV */
  44:Core/Src/stm32l4xx_it.c **** 
  45:Core/Src/stm32l4xx_it.c **** /* USER CODE END PV */
  46:Core/Src/stm32l4xx_it.c **** 
  47:Core/Src/stm32l4xx_it.c **** /* Private function prototypes -----------------------------------------------*/
  48:Core/Src/stm32l4xx_it.c **** /* USER CODE BEGIN PFP */
  49:Core/Src/stm32l4xx_it.c **** 
  50:Core/Src/stm32l4xx_it.c **** /* USER CODE END PFP */
  51:Core/Src/stm32l4xx_it.c **** 
  52:Core/Src/stm32l4xx_it.c **** /* Private user code ---------------------------------------------------------*/
  53:Core/Src/stm32l4xx_it.c **** /* USER CODE BEGIN 0 */
  54:Core/Src/stm32l4xx_it.c **** 
  55:Core/Src/stm32l4xx_it.c **** /* USER CODE END 0 */
  56:Core/Src/stm32l4xx_it.c **** 
  57:Core/Src/stm32l4xx_it.c **** /* External variables --------------------------------------------------------*/
  58:Core/Src/stm32l4xx_it.c **** extern DMA_HandleTypeDef hdma_sdmmc1_rx;
  59:Core/Src/stm32l4xx_it.c **** extern DMA_HandleTypeDef hdma_sdmmc1_tx;
  60:Core/Src/stm32l4xx_it.c **** extern SD_HandleTypeDef hsd1;
  61:Core/Src/stm32l4xx_it.c **** extern UART_HandleTypeDef huart1;
  62:Core/Src/stm32l4xx_it.c **** /* USER CODE BEGIN EV */
  63:Core/Src/stm32l4xx_it.c **** extern DMA_HandleTypeDef hdma_sdmmc1;
  64:Core/Src/stm32l4xx_it.c **** /* USER CODE END EV */
  65:Core/Src/stm32l4xx_it.c **** 
  66:Core/Src/stm32l4xx_it.c **** /******************************************************************************/
  67:Core/Src/stm32l4xx_it.c **** /*           Cortex-M4 Processor Interruption and Exception Handlers          */
  68:Core/Src/stm32l4xx_it.c **** /******************************************************************************/
  69:Core/Src/stm32l4xx_it.c **** /**
  70:Core/Src/stm32l4xx_it.c ****   * @brief This function handles Non maskable interrupt.
  71:Core/Src/stm32l4xx_it.c ****   */
  72:Core/Src/stm32l4xx_it.c **** void NMI_Handler(void)
  73:Core/Src/stm32l4xx_it.c **** {
  29              		.loc 1 73 1 view -0
  30              		.cfi_startproc
  31              		@ Volatile: function does not return.
  32              		@ args = 0, pretend = 0, frame = 0
  33              		@ frame_needed = 0, uses_anonymous_args = 0
  34              		@ link register save eliminated.
  35              	.L2:
  74:Core/Src/stm32l4xx_it.c ****   /* USER CODE BEGIN NonMaskableInt_IRQn 0 */
  75:Core/Src/stm32l4xx_it.c **** 
  76:Core/Src/stm32l4xx_it.c ****   /* USER CODE END NonMaskableInt_IRQn 0 */
  77:Core/Src/stm32l4xx_it.c ****   /* USER CODE BEGIN NonMaskableInt_IRQn 1 */
  78:Core/Src/stm32l4xx_it.c ****    while (1)
  36              		.loc 1 78 4 view .LVU1
  79:Core/Src/stm32l4xx_it.c ****   {
ARM GAS  /var/folders/gv/t2w3mcd17yl2fynvjl120d0m0000gn/T//ccHojmlD.s 			page 3


  80:Core/Src/stm32l4xx_it.c ****   }
  37              		.loc 1 80 3 view .LVU2
  78:Core/Src/stm32l4xx_it.c ****   {
  38              		.loc 1 78 10 view .LVU3
  39 0000 FEE7     		b	.L2
  40              		.cfi_endproc
  41              	.LFE228:
  43              		.section	.text.HardFault_Handler,"ax",%progbits
  44              		.align	1
  45              		.global	HardFault_Handler
  46              		.syntax unified
  47              		.thumb
  48              		.thumb_func
  50              	HardFault_Handler:
  51              	.LFB229:
  81:Core/Src/stm32l4xx_it.c ****   /* USER CODE END NonMaskableInt_IRQn 1 */
  82:Core/Src/stm32l4xx_it.c **** }
  83:Core/Src/stm32l4xx_it.c **** 
  84:Core/Src/stm32l4xx_it.c **** /**
  85:Core/Src/stm32l4xx_it.c ****   * @brief This function handles Hard fault interrupt.
  86:Core/Src/stm32l4xx_it.c ****   */
  87:Core/Src/stm32l4xx_it.c **** void HardFault_Handler(void)
  88:Core/Src/stm32l4xx_it.c **** {
  52              		.loc 1 88 1 view -0
  53              		.cfi_startproc
  54              		@ Volatile: function does not return.
  55              		@ args = 0, pretend = 0, frame = 0
  56              		@ frame_needed = 0, uses_anonymous_args = 0
  57              		@ link register save eliminated.
  89:Core/Src/stm32l4xx_it.c ****   /* USER CODE BEGIN HardFault_IRQn 0 */
  90:Core/Src/stm32l4xx_it.c ****   __asm volatile
  58              		.loc 1 90 3 view .LVU5
  59              		.syntax unified
  60              	@ 90 "Core/Src/stm32l4xx_it.c" 1
  61 0000 1EF0040F 		 tst lr, #4                                                
  62 0004 0CBF     	 ite eq                                                    
  63 0006 EFF30880 	 mrseq r0, msp                                             
  64 000a EFF30980 	 mrsne r0, psp                                             
  65 000e 8169     	 ldr r1, [r0, #24]                                         
  66 0010 014A     	 ldr r2, =hard_fault_handler_c                             
  67 0012 1047     	 bx r2                                                     
  68              	
  69              	@ 0 "" 2
  70              		.thumb
  71              		.syntax unified
  72              	.L4:
  91:Core/Src/stm32l4xx_it.c ****     (
  92:Core/Src/stm32l4xx_it.c ****         " tst lr, #4                                                \n"
  93:Core/Src/stm32l4xx_it.c ****         " ite eq                                                    \n"
  94:Core/Src/stm32l4xx_it.c ****         " mrseq r0, msp                                             \n"
  95:Core/Src/stm32l4xx_it.c ****         " mrsne r0, psp                                             \n"
  96:Core/Src/stm32l4xx_it.c ****         " ldr r1, [r0, #24]                                         \n" // stacked PC
  97:Core/Src/stm32l4xx_it.c ****         " ldr r2, =hard_fault_handler_c                             \n"
  98:Core/Src/stm32l4xx_it.c ****         " bx r2                                                     \n"
  99:Core/Src/stm32l4xx_it.c ****     );
 100:Core/Src/stm32l4xx_it.c ****   /* USER CODE END HardFault_IRQn 0 */
 101:Core/Src/stm32l4xx_it.c ****   while (1)
ARM GAS  /var/folders/gv/t2w3mcd17yl2fynvjl120d0m0000gn/T//ccHojmlD.s 			page 4


  73              		.loc 1 101 3 view .LVU6
 102:Core/Src/stm32l4xx_it.c ****   {
 103:Core/Src/stm32l4xx_it.c ****     /* USER CODE BEGIN W1_HardFault_IRQn 0 */
 104:Core/Src/stm32l4xx_it.c ****     /* USER CODE END W1_HardFault_IRQn 0 */
 105:Core/Src/stm32l4xx_it.c ****   }
  74              		.loc 1 105 3 view .LVU7
 101:Core/Src/stm32l4xx_it.c ****   {
  75              		.loc 1 101 9 view .LVU8
  76 0014 FEE7     		b	.L4
  77              		.cfi_endproc
  78              	.LFE229:
  80 0016 0000     		.section	.text.MemManage_Handler,"ax",%progbits
  81              		.align	1
  82              		.global	MemManage_Handler
  83              		.syntax unified
  84              		.thumb
  85              		.thumb_func
  87              	MemManage_Handler:
  88              	.LFB230:
 106:Core/Src/stm32l4xx_it.c **** }
 107:Core/Src/stm32l4xx_it.c **** 
 108:Core/Src/stm32l4xx_it.c **** /**
 109:Core/Src/stm32l4xx_it.c ****   * @brief This function handles Memory management fault.
 110:Core/Src/stm32l4xx_it.c ****   */
 111:Core/Src/stm32l4xx_it.c **** void MemManage_Handler(void)
 112:Core/Src/stm32l4xx_it.c **** {
  89              		.loc 1 112 1 view -0
  90              		.cfi_startproc
  91              		@ Volatile: function does not return.
  92              		@ args = 0, pretend = 0, frame = 0
  93              		@ frame_needed = 0, uses_anonymous_args = 0
  94              		@ link register save eliminated.
  95              	.L6:
 113:Core/Src/stm32l4xx_it.c ****   /* USER CODE BEGIN MemoryManagement_IRQn 0 */
 114:Core/Src/stm32l4xx_it.c **** 
 115:Core/Src/stm32l4xx_it.c ****   /* USER CODE END MemoryManagement_IRQn 0 */
 116:Core/Src/stm32l4xx_it.c ****   while (1)
  96              		.loc 1 116 3 view .LVU10
 117:Core/Src/stm32l4xx_it.c ****   {
 118:Core/Src/stm32l4xx_it.c ****     /* USER CODE BEGIN W1_MemoryManagement_IRQn 0 */
 119:Core/Src/stm32l4xx_it.c ****     /* USER CODE END W1_MemoryManagement_IRQn 0 */
 120:Core/Src/stm32l4xx_it.c ****   }
  97              		.loc 1 120 3 view .LVU11
 116:Core/Src/stm32l4xx_it.c ****   {
  98              		.loc 1 116 9 view .LVU12
  99 0000 FEE7     		b	.L6
 100              		.cfi_endproc
 101              	.LFE230:
 103              		.section	.text.BusFault_Handler,"ax",%progbits
 104              		.align	1
 105              		.global	BusFault_Handler
 106              		.syntax unified
 107              		.thumb
 108              		.thumb_func
 110              	BusFault_Handler:
 111              	.LFB231:
 121:Core/Src/stm32l4xx_it.c **** }
ARM GAS  /var/folders/gv/t2w3mcd17yl2fynvjl120d0m0000gn/T//ccHojmlD.s 			page 5


 122:Core/Src/stm32l4xx_it.c **** 
 123:Core/Src/stm32l4xx_it.c **** /**
 124:Core/Src/stm32l4xx_it.c ****   * @brief This function handles Prefetch fault, memory access fault.
 125:Core/Src/stm32l4xx_it.c ****   */
 126:Core/Src/stm32l4xx_it.c **** void BusFault_Handler(void)
 127:Core/Src/stm32l4xx_it.c **** {
 112              		.loc 1 127 1 view -0
 113              		.cfi_startproc
 114              		@ Volatile: function does not return.
 115              		@ args = 0, pretend = 0, frame = 0
 116              		@ frame_needed = 0, uses_anonymous_args = 0
 117              		@ link register save eliminated.
 118              	.L8:
 128:Core/Src/stm32l4xx_it.c ****   /* USER CODE BEGIN BusFault_IRQn 0 */
 129:Core/Src/stm32l4xx_it.c **** 
 130:Core/Src/stm32l4xx_it.c ****   /* USER CODE END BusFault_IRQn 0 */
 131:Core/Src/stm32l4xx_it.c ****   while (1)
 119              		.loc 1 131 3 view .LVU14
 132:Core/Src/stm32l4xx_it.c ****   {
 133:Core/Src/stm32l4xx_it.c ****     /* USER CODE BEGIN W1_BusFault_IRQn 0 */
 134:Core/Src/stm32l4xx_it.c ****     /* USER CODE END W1_BusFault_IRQn 0 */
 135:Core/Src/stm32l4xx_it.c ****   }
 120              		.loc 1 135 3 view .LVU15
 131:Core/Src/stm32l4xx_it.c ****   {
 121              		.loc 1 131 9 view .LVU16
 122 0000 FEE7     		b	.L8
 123              		.cfi_endproc
 124              	.LFE231:
 126              		.section	.text.UsageFault_Handler,"ax",%progbits
 127              		.align	1
 128              		.global	UsageFault_Handler
 129              		.syntax unified
 130              		.thumb
 131              		.thumb_func
 133              	UsageFault_Handler:
 134              	.LFB232:
 136:Core/Src/stm32l4xx_it.c **** }
 137:Core/Src/stm32l4xx_it.c **** 
 138:Core/Src/stm32l4xx_it.c **** /**
 139:Core/Src/stm32l4xx_it.c ****   * @brief This function handles Undefined instruction or illegal state.
 140:Core/Src/stm32l4xx_it.c ****   */
 141:Core/Src/stm32l4xx_it.c **** void UsageFault_Handler(void)
 142:Core/Src/stm32l4xx_it.c **** {
 135              		.loc 1 142 1 view -0
 136              		.cfi_startproc
 137              		@ Volatile: function does not return.
 138              		@ args = 0, pretend = 0, frame = 0
 139              		@ frame_needed = 0, uses_anonymous_args = 0
 140              		@ link register save eliminated.
 141              	.L10:
 143:Core/Src/stm32l4xx_it.c ****   /* USER CODE BEGIN UsageFault_IRQn 0 */
 144:Core/Src/stm32l4xx_it.c **** 
 145:Core/Src/stm32l4xx_it.c ****   /* USER CODE END UsageFault_IRQn 0 */
 146:Core/Src/stm32l4xx_it.c ****   while (1)
 142              		.loc 1 146 3 view .LVU18
 147:Core/Src/stm32l4xx_it.c ****   {
 148:Core/Src/stm32l4xx_it.c ****     /* USER CODE BEGIN W1_UsageFault_IRQn 0 */
ARM GAS  /var/folders/gv/t2w3mcd17yl2fynvjl120d0m0000gn/T//ccHojmlD.s 			page 6


 149:Core/Src/stm32l4xx_it.c ****     /* USER CODE END W1_UsageFault_IRQn 0 */
 150:Core/Src/stm32l4xx_it.c ****   }
 143              		.loc 1 150 3 view .LVU19
 146:Core/Src/stm32l4xx_it.c ****   {
 144              		.loc 1 146 9 view .LVU20
 145 0000 FEE7     		b	.L10
 146              		.cfi_endproc
 147              	.LFE232:
 149              		.section	.text.SVC_Handler,"ax",%progbits
 150              		.align	1
 151              		.global	SVC_Handler
 152              		.syntax unified
 153              		.thumb
 154              		.thumb_func
 156              	SVC_Handler:
 157              	.LFB233:
 151:Core/Src/stm32l4xx_it.c **** }
 152:Core/Src/stm32l4xx_it.c **** 
 153:Core/Src/stm32l4xx_it.c **** /**
 154:Core/Src/stm32l4xx_it.c ****   * @brief This function handles System service call via SWI instruction.
 155:Core/Src/stm32l4xx_it.c ****   */
 156:Core/Src/stm32l4xx_it.c **** void SVC_Handler(void)
 157:Core/Src/stm32l4xx_it.c **** {
 158              		.loc 1 157 1 view -0
 159              		.cfi_startproc
 160              		@ args = 0, pretend = 0, frame = 0
 161              		@ frame_needed = 0, uses_anonymous_args = 0
 162              		@ link register save eliminated.
 158:Core/Src/stm32l4xx_it.c ****   /* USER CODE BEGIN SVCall_IRQn 0 */
 159:Core/Src/stm32l4xx_it.c **** 
 160:Core/Src/stm32l4xx_it.c ****   /* USER CODE END SVCall_IRQn 0 */
 161:Core/Src/stm32l4xx_it.c ****   /* USER CODE BEGIN SVCall_IRQn 1 */
 162:Core/Src/stm32l4xx_it.c **** 
 163:Core/Src/stm32l4xx_it.c ****   /* USER CODE END SVCall_IRQn 1 */
 164:Core/Src/stm32l4xx_it.c **** }
 163              		.loc 1 164 1 view .LVU22
 164 0000 7047     		bx	lr
 165              		.cfi_endproc
 166              	.LFE233:
 168              		.section	.text.DebugMon_Handler,"ax",%progbits
 169              		.align	1
 170              		.global	DebugMon_Handler
 171              		.syntax unified
 172              		.thumb
 173              		.thumb_func
 175              	DebugMon_Handler:
 176              	.LFB234:
 165:Core/Src/stm32l4xx_it.c **** 
 166:Core/Src/stm32l4xx_it.c **** /**
 167:Core/Src/stm32l4xx_it.c ****   * @brief This function handles Debug monitor.
 168:Core/Src/stm32l4xx_it.c ****   */
 169:Core/Src/stm32l4xx_it.c **** void DebugMon_Handler(void)
 170:Core/Src/stm32l4xx_it.c **** {
 177              		.loc 1 170 1 view -0
 178              		.cfi_startproc
 179              		@ args = 0, pretend = 0, frame = 0
 180              		@ frame_needed = 0, uses_anonymous_args = 0
ARM GAS  /var/folders/gv/t2w3mcd17yl2fynvjl120d0m0000gn/T//ccHojmlD.s 			page 7


 181              		@ link register save eliminated.
 171:Core/Src/stm32l4xx_it.c ****   /* USER CODE BEGIN DebugMonitor_IRQn 0 */
 172:Core/Src/stm32l4xx_it.c **** 
 173:Core/Src/stm32l4xx_it.c ****   /* USER CODE END DebugMonitor_IRQn 0 */
 174:Core/Src/stm32l4xx_it.c ****   /* USER CODE BEGIN DebugMonitor_IRQn 1 */
 175:Core/Src/stm32l4xx_it.c **** 
 176:Core/Src/stm32l4xx_it.c ****   /* USER CODE END DebugMonitor_IRQn 1 */
 177:Core/Src/stm32l4xx_it.c **** }
 182              		.loc 1 177 1 view .LVU24
 183 0000 7047     		bx	lr
 184              		.cfi_endproc
 185              	.LFE234:
 187              		.section	.text.PendSV_Handler,"ax",%progbits
 188              		.align	1
 189              		.global	PendSV_Handler
 190              		.syntax unified
 191              		.thumb
 192              		.thumb_func
 194              	PendSV_Handler:
 195              	.LFB235:
 178:Core/Src/stm32l4xx_it.c **** 
 179:Core/Src/stm32l4xx_it.c **** /**
 180:Core/Src/stm32l4xx_it.c ****   * @brief This function handles Pendable request for system service.
 181:Core/Src/stm32l4xx_it.c ****   */
 182:Core/Src/stm32l4xx_it.c **** void PendSV_Handler(void)
 183:Core/Src/stm32l4xx_it.c **** {
 196              		.loc 1 183 1 view -0
 197              		.cfi_startproc
 198              		@ args = 0, pretend = 0, frame = 0
 199              		@ frame_needed = 0, uses_anonymous_args = 0
 200              		@ link register save eliminated.
 184:Core/Src/stm32l4xx_it.c ****   /* USER CODE BEGIN PendSV_IRQn 0 */
 185:Core/Src/stm32l4xx_it.c **** 
 186:Core/Src/stm32l4xx_it.c ****   /* USER CODE END PendSV_IRQn 0 */
 187:Core/Src/stm32l4xx_it.c ****   /* USER CODE BEGIN PendSV_IRQn 1 */
 188:Core/Src/stm32l4xx_it.c **** 
 189:Core/Src/stm32l4xx_it.c ****   /* USER CODE END PendSV_IRQn 1 */
 190:Core/Src/stm32l4xx_it.c **** }
 201              		.loc 1 190 1 view .LVU26
 202 0000 7047     		bx	lr
 203              		.cfi_endproc
 204              	.LFE235:
 206              		.section	.text.SysTick_Handler,"ax",%progbits
 207              		.align	1
 208              		.global	SysTick_Handler
 209              		.syntax unified
 210              		.thumb
 211              		.thumb_func
 213              	SysTick_Handler:
 214              	.LFB236:
 191:Core/Src/stm32l4xx_it.c **** 
 192:Core/Src/stm32l4xx_it.c **** /**
 193:Core/Src/stm32l4xx_it.c ****   * @brief This function handles System tick timer.
 194:Core/Src/stm32l4xx_it.c ****   */
 195:Core/Src/stm32l4xx_it.c **** void SysTick_Handler(void)
 196:Core/Src/stm32l4xx_it.c **** {
 215              		.loc 1 196 1 view -0
ARM GAS  /var/folders/gv/t2w3mcd17yl2fynvjl120d0m0000gn/T//ccHojmlD.s 			page 8


 216              		.cfi_startproc
 217              		@ args = 0, pretend = 0, frame = 0
 218              		@ frame_needed = 0, uses_anonymous_args = 0
 219 0000 08B5     		push	{r3, lr}
 220              	.LCFI0:
 221              		.cfi_def_cfa_offset 8
 222              		.cfi_offset 3, -8
 223              		.cfi_offset 14, -4
 197:Core/Src/stm32l4xx_it.c ****   /* USER CODE BEGIN SysTick_IRQn 0 */
 198:Core/Src/stm32l4xx_it.c **** 
 199:Core/Src/stm32l4xx_it.c ****   /* USER CODE END SysTick_IRQn 0 */
 200:Core/Src/stm32l4xx_it.c ****   HAL_IncTick();
 224              		.loc 1 200 3 view .LVU28
 225 0002 FFF7FEFF 		bl	HAL_IncTick
 226              	.LVL0:
 201:Core/Src/stm32l4xx_it.c ****   /* USER CODE BEGIN SysTick_IRQn 1 */
 202:Core/Src/stm32l4xx_it.c **** 
 203:Core/Src/stm32l4xx_it.c ****   /* USER CODE END SysTick_IRQn 1 */
 204:Core/Src/stm32l4xx_it.c **** }
 227              		.loc 1 204 1 is_stmt 0 view .LVU29
 228 0006 08BD     		pop	{r3, pc}
 229              		.cfi_endproc
 230              	.LFE236:
 232              		.section	.text.EXTI0_IRQHandler,"ax",%progbits
 233              		.align	1
 234              		.global	EXTI0_IRQHandler
 235              		.syntax unified
 236              		.thumb
 237              		.thumb_func
 239              	EXTI0_IRQHandler:
 240              	.LFB237:
 205:Core/Src/stm32l4xx_it.c **** 
 206:Core/Src/stm32l4xx_it.c **** /******************************************************************************/
 207:Core/Src/stm32l4xx_it.c **** /* STM32L4xx Peripheral Interrupt Handlers                                    */
 208:Core/Src/stm32l4xx_it.c **** /* Add here the Interrupt Handlers for the used peripherals.                  */
 209:Core/Src/stm32l4xx_it.c **** /* For the available peripheral interrupt handler names,                      */
 210:Core/Src/stm32l4xx_it.c **** /* please refer to the startup file (startup_stm32l4xx.s).                    */
 211:Core/Src/stm32l4xx_it.c **** /******************************************************************************/
 212:Core/Src/stm32l4xx_it.c **** 
 213:Core/Src/stm32l4xx_it.c **** /**
 214:Core/Src/stm32l4xx_it.c ****   * @brief This function handles EXTI line0 interrupt.
 215:Core/Src/stm32l4xx_it.c ****   */
 216:Core/Src/stm32l4xx_it.c **** void EXTI0_IRQHandler(void)
 217:Core/Src/stm32l4xx_it.c **** {
 241              		.loc 1 217 1 is_stmt 1 view -0
 242              		.cfi_startproc
 243              		@ args = 0, pretend = 0, frame = 0
 244              		@ frame_needed = 0, uses_anonymous_args = 0
 245 0000 08B5     		push	{r3, lr}
 246              	.LCFI1:
 247              		.cfi_def_cfa_offset 8
 248              		.cfi_offset 3, -8
 249              		.cfi_offset 14, -4
 218:Core/Src/stm32l4xx_it.c ****   /* USER CODE BEGIN EXTI0_IRQn 0 */
 219:Core/Src/stm32l4xx_it.c **** 
 220:Core/Src/stm32l4xx_it.c ****   /* USER CODE END EXTI0_IRQn 0 */
 221:Core/Src/stm32l4xx_it.c ****   HAL_GPIO_EXTI_IRQHandler(Acc_Int_Pin);
ARM GAS  /var/folders/gv/t2w3mcd17yl2fynvjl120d0m0000gn/T//ccHojmlD.s 			page 9


 250              		.loc 1 221 3 view .LVU31
 251 0002 0120     		movs	r0, #1
 252 0004 FFF7FEFF 		bl	HAL_GPIO_EXTI_IRQHandler
 253              	.LVL1:
 222:Core/Src/stm32l4xx_it.c ****   /* USER CODE BEGIN EXTI0_IRQn 1 */
 223:Core/Src/stm32l4xx_it.c **** 
 224:Core/Src/stm32l4xx_it.c ****   /* USER CODE END EXTI0_IRQn 1 */
 225:Core/Src/stm32l4xx_it.c **** }
 254              		.loc 1 225 1 is_stmt 0 view .LVU32
 255 0008 08BD     		pop	{r3, pc}
 256              		.cfi_endproc
 257              	.LFE237:
 259              		.section	.text.EXTI1_IRQHandler,"ax",%progbits
 260              		.align	1
 261              		.global	EXTI1_IRQHandler
 262              		.syntax unified
 263              		.thumb
 264              		.thumb_func
 266              	EXTI1_IRQHandler:
 267              	.LFB238:
 226:Core/Src/stm32l4xx_it.c **** 
 227:Core/Src/stm32l4xx_it.c **** /**
 228:Core/Src/stm32l4xx_it.c ****   * @brief This function handles EXTI line1 interrupt.
 229:Core/Src/stm32l4xx_it.c ****   */
 230:Core/Src/stm32l4xx_it.c **** void EXTI1_IRQHandler(void)
 231:Core/Src/stm32l4xx_it.c **** {
 268              		.loc 1 231 1 is_stmt 1 view -0
 269              		.cfi_startproc
 270              		@ args = 0, pretend = 0, frame = 0
 271              		@ frame_needed = 0, uses_anonymous_args = 0
 272 0000 08B5     		push	{r3, lr}
 273              	.LCFI2:
 274              		.cfi_def_cfa_offset 8
 275              		.cfi_offset 3, -8
 276              		.cfi_offset 14, -4
 232:Core/Src/stm32l4xx_it.c ****   /* USER CODE BEGIN EXTI1_IRQn 0 */
 233:Core/Src/stm32l4xx_it.c **** 
 234:Core/Src/stm32l4xx_it.c ****   /* USER CODE END EXTI1_IRQn 0 */
 235:Core/Src/stm32l4xx_it.c ****   HAL_GPIO_EXTI_IRQHandler(ACC2_INT_Pin);
 277              		.loc 1 235 3 view .LVU34
 278 0002 0220     		movs	r0, #2
 279 0004 FFF7FEFF 		bl	HAL_GPIO_EXTI_IRQHandler
 280              	.LVL2:
 236:Core/Src/stm32l4xx_it.c ****   /* USER CODE BEGIN EXTI1_IRQn 1 */
 237:Core/Src/stm32l4xx_it.c **** 
 238:Core/Src/stm32l4xx_it.c ****   /* USER CODE END EXTI1_IRQn 1 */
 239:Core/Src/stm32l4xx_it.c **** }
 281              		.loc 1 239 1 is_stmt 0 view .LVU35
 282 0008 08BD     		pop	{r3, pc}
 283              		.cfi_endproc
 284              	.LFE238:
 286              		.section	.text.USART1_IRQHandler,"ax",%progbits
 287              		.align	1
 288              		.global	USART1_IRQHandler
 289              		.syntax unified
 290              		.thumb
 291              		.thumb_func
ARM GAS  /var/folders/gv/t2w3mcd17yl2fynvjl120d0m0000gn/T//ccHojmlD.s 			page 10


 293              	USART1_IRQHandler:
 294              	.LFB239:
 240:Core/Src/stm32l4xx_it.c **** 
 241:Core/Src/stm32l4xx_it.c **** /**
 242:Core/Src/stm32l4xx_it.c ****   * @brief This function handles USART1 global interrupt.
 243:Core/Src/stm32l4xx_it.c ****   */
 244:Core/Src/stm32l4xx_it.c **** void USART1_IRQHandler(void)
 245:Core/Src/stm32l4xx_it.c **** {
 295              		.loc 1 245 1 is_stmt 1 view -0
 296              		.cfi_startproc
 297              		@ args = 0, pretend = 0, frame = 0
 298              		@ frame_needed = 0, uses_anonymous_args = 0
 299 0000 08B5     		push	{r3, lr}
 300              	.LCFI3:
 301              		.cfi_def_cfa_offset 8
 302              		.cfi_offset 3, -8
 303              		.cfi_offset 14, -4
 246:Core/Src/stm32l4xx_it.c ****   /* USER CODE BEGIN USART1_IRQn 0 */
 247:Core/Src/stm32l4xx_it.c **** 
 248:Core/Src/stm32l4xx_it.c ****   /* USER CODE END USART1_IRQn 0 */
 249:Core/Src/stm32l4xx_it.c ****   HAL_UART_IRQHandler(&huart1);
 304              		.loc 1 249 3 view .LVU37
 305 0002 0248     		ldr	r0, .L22
 306 0004 FFF7FEFF 		bl	HAL_UART_IRQHandler
 307              	.LVL3:
 250:Core/Src/stm32l4xx_it.c ****   /* USER CODE BEGIN USART1_IRQn 1 */
 251:Core/Src/stm32l4xx_it.c **** 
 252:Core/Src/stm32l4xx_it.c ****   /* USER CODE END USART1_IRQn 1 */
 253:Core/Src/stm32l4xx_it.c **** }
 308              		.loc 1 253 1 is_stmt 0 view .LVU38
 309 0008 08BD     		pop	{r3, pc}
 310              	.L23:
 311 000a 00BF     		.align	2
 312              	.L22:
 313 000c 00000000 		.word	huart1
 314              		.cfi_endproc
 315              	.LFE239:
 317              		.section	.text.SDMMC1_IRQHandler,"ax",%progbits
 318              		.align	1
 319              		.global	SDMMC1_IRQHandler
 320              		.syntax unified
 321              		.thumb
 322              		.thumb_func
 324              	SDMMC1_IRQHandler:
 325              	.LFB240:
 254:Core/Src/stm32l4xx_it.c **** 
 255:Core/Src/stm32l4xx_it.c **** /**
 256:Core/Src/stm32l4xx_it.c ****   * @brief This function handles SDMMC1 global interrupt.
 257:Core/Src/stm32l4xx_it.c ****   */
 258:Core/Src/stm32l4xx_it.c **** void SDMMC1_IRQHandler(void)
 259:Core/Src/stm32l4xx_it.c **** {
 326              		.loc 1 259 1 is_stmt 1 view -0
 327              		.cfi_startproc
 328              		@ args = 0, pretend = 0, frame = 0
 329              		@ frame_needed = 0, uses_anonymous_args = 0
 330 0000 08B5     		push	{r3, lr}
 331              	.LCFI4:
ARM GAS  /var/folders/gv/t2w3mcd17yl2fynvjl120d0m0000gn/T//ccHojmlD.s 			page 11


 332              		.cfi_def_cfa_offset 8
 333              		.cfi_offset 3, -8
 334              		.cfi_offset 14, -4
 260:Core/Src/stm32l4xx_it.c ****   /* USER CODE BEGIN SDMMC1_IRQn 0 */
 261:Core/Src/stm32l4xx_it.c **** 
 262:Core/Src/stm32l4xx_it.c ****   /* USER CODE END SDMMC1_IRQn 0 */
 263:Core/Src/stm32l4xx_it.c ****   HAL_SD_IRQHandler(&hsd1);
 335              		.loc 1 263 3 view .LVU40
 336 0002 0248     		ldr	r0, .L26
 337 0004 FFF7FEFF 		bl	HAL_SD_IRQHandler
 338              	.LVL4:
 264:Core/Src/stm32l4xx_it.c ****   /* USER CODE BEGIN SDMMC1_IRQn 1 */
 265:Core/Src/stm32l4xx_it.c **** 
 266:Core/Src/stm32l4xx_it.c ****   /* USER CODE END SDMMC1_IRQn 1 */
 267:Core/Src/stm32l4xx_it.c **** }
 339              		.loc 1 267 1 is_stmt 0 view .LVU41
 340 0008 08BD     		pop	{r3, pc}
 341              	.L27:
 342 000a 00BF     		.align	2
 343              	.L26:
 344 000c 00000000 		.word	hsd1
 345              		.cfi_endproc
 346              	.LFE240:
 348              		.section	.text.DMA2_Channel4_IRQHandler,"ax",%progbits
 349              		.align	1
 350              		.global	DMA2_Channel4_IRQHandler
 351              		.syntax unified
 352              		.thumb
 353              		.thumb_func
 355              	DMA2_Channel4_IRQHandler:
 356              	.LFB241:
 268:Core/Src/stm32l4xx_it.c **** 
 269:Core/Src/stm32l4xx_it.c **** /**
 270:Core/Src/stm32l4xx_it.c ****   * @brief This function handles DMA2 channel4 global interrupt.
 271:Core/Src/stm32l4xx_it.c ****   */
 272:Core/Src/stm32l4xx_it.c **** void DMA2_Channel4_IRQHandler(void)
 273:Core/Src/stm32l4xx_it.c **** {
 357              		.loc 1 273 1 is_stmt 1 view -0
 358              		.cfi_startproc
 359              		@ args = 0, pretend = 0, frame = 0
 360              		@ frame_needed = 0, uses_anonymous_args = 0
 361 0000 08B5     		push	{r3, lr}
 362              	.LCFI5:
 363              		.cfi_def_cfa_offset 8
 364              		.cfi_offset 3, -8
 365              		.cfi_offset 14, -4
 274:Core/Src/stm32l4xx_it.c ****   /* USER CODE BEGIN DMA2_Channel4_IRQn 0 */
 275:Core/Src/stm32l4xx_it.c ****   HAL_DMA_IRQHandler(&hdma_sdmmc1);
 366              		.loc 1 275 3 view .LVU43
 367 0002 0348     		ldr	r0, .L30
 368 0004 FFF7FEFF 		bl	HAL_DMA_IRQHandler
 369              	.LVL5:
 276:Core/Src/stm32l4xx_it.c ****   /* USER CODE END DMA2_Channel4_IRQn 0 */
 277:Core/Src/stm32l4xx_it.c ****   HAL_DMA_IRQHandler(&hdma_sdmmc1_tx);
 370              		.loc 1 277 3 view .LVU44
 371 0008 0248     		ldr	r0, .L30+4
 372 000a FFF7FEFF 		bl	HAL_DMA_IRQHandler
ARM GAS  /var/folders/gv/t2w3mcd17yl2fynvjl120d0m0000gn/T//ccHojmlD.s 			page 12


 373              	.LVL6:
 278:Core/Src/stm32l4xx_it.c ****   /* USER CODE BEGIN DMA2_Channel4_IRQn 1 */
 279:Core/Src/stm32l4xx_it.c **** 
 280:Core/Src/stm32l4xx_it.c ****   /* USER CODE END DMA2_Channel4_IRQn 1 */
 281:Core/Src/stm32l4xx_it.c **** }
 374              		.loc 1 281 1 is_stmt 0 view .LVU45
 375 000e 08BD     		pop	{r3, pc}
 376              	.L31:
 377              		.align	2
 378              	.L30:
 379 0010 00000000 		.word	hdma_sdmmc1
 380 0014 00000000 		.word	hdma_sdmmc1_tx
 381              		.cfi_endproc
 382              	.LFE241:
 384              		.section	.text.DMA2_Channel5_IRQHandler,"ax",%progbits
 385              		.align	1
 386              		.global	DMA2_Channel5_IRQHandler
 387              		.syntax unified
 388              		.thumb
 389              		.thumb_func
 391              	DMA2_Channel5_IRQHandler:
 392              	.LFB242:
 282:Core/Src/stm32l4xx_it.c **** 
 283:Core/Src/stm32l4xx_it.c **** /**
 284:Core/Src/stm32l4xx_it.c ****   * @brief This function handles DMA2 channel5 global interrupt.
 285:Core/Src/stm32l4xx_it.c ****   */
 286:Core/Src/stm32l4xx_it.c **** void DMA2_Channel5_IRQHandler(void)
 287:Core/Src/stm32l4xx_it.c **** {
 393              		.loc 1 287 1 is_stmt 1 view -0
 394              		.cfi_startproc
 395              		@ args = 0, pretend = 0, frame = 0
 396              		@ frame_needed = 0, uses_anonymous_args = 0
 397 0000 08B5     		push	{r3, lr}
 398              	.LCFI6:
 399              		.cfi_def_cfa_offset 8
 400              		.cfi_offset 3, -8
 401              		.cfi_offset 14, -4
 288:Core/Src/stm32l4xx_it.c ****   /* USER CODE BEGIN DMA2_Channel5_IRQn 0 */
 289:Core/Src/stm32l4xx_it.c ****   HAL_DMA_IRQHandler(&hdma_sdmmc1);
 402              		.loc 1 289 3 view .LVU47
 403 0002 0348     		ldr	r0, .L34
 404 0004 FFF7FEFF 		bl	HAL_DMA_IRQHandler
 405              	.LVL7:
 290:Core/Src/stm32l4xx_it.c ****   /* USER CODE END DMA2_Channel5_IRQn 0 */
 291:Core/Src/stm32l4xx_it.c ****   HAL_DMA_IRQHandler(&hdma_sdmmc1_rx);
 406              		.loc 1 291 3 view .LVU48
 407 0008 0248     		ldr	r0, .L34+4
 408 000a FFF7FEFF 		bl	HAL_DMA_IRQHandler
 409              	.LVL8:
 292:Core/Src/stm32l4xx_it.c ****   /* USER CODE BEGIN DMA2_Channel5_IRQn 1 */
 293:Core/Src/stm32l4xx_it.c **** 
 294:Core/Src/stm32l4xx_it.c ****   /* USER CODE END DMA2_Channel5_IRQn 1 */
 295:Core/Src/stm32l4xx_it.c **** }
 410              		.loc 1 295 1 is_stmt 0 view .LVU49
 411 000e 08BD     		pop	{r3, pc}
 412              	.L35:
 413              		.align	2
ARM GAS  /var/folders/gv/t2w3mcd17yl2fynvjl120d0m0000gn/T//ccHojmlD.s 			page 13


 414              	.L34:
 415 0010 00000000 		.word	hdma_sdmmc1
 416 0014 00000000 		.word	hdma_sdmmc1_rx
 417              		.cfi_endproc
 418              	.LFE242:
 420              		.text
 421              	.Letext0:
 422              		.file 2 "/Applications/ArmGNUToolchain/15.2.rel1/arm-none-eabi/arm-none-eabi/include/machine/_defa
 423              		.file 3 "/Applications/ArmGNUToolchain/15.2.rel1/arm-none-eabi/arm-none-eabi/include/sys/_stdint.h
 424              		.file 4 "Drivers/CMSIS/Device/ST/STM32L4xx/Include/stm32l476xx.h"
 425              		.file 5 "Drivers/STM32L4xx_HAL_Driver/Inc/stm32l4xx_hal_def.h"
 426              		.file 6 "Drivers/STM32L4xx_HAL_Driver/Inc/stm32l4xx_hal_dma.h"
 427              		.file 7 "Drivers/STM32L4xx_HAL_Driver/Inc/stm32l4xx_ll_sdmmc.h"
 428              		.file 8 "Drivers/STM32L4xx_HAL_Driver/Inc/stm32l4xx_hal_sd.h"
 429              		.file 9 "Drivers/STM32L4xx_HAL_Driver/Inc/stm32l4xx_hal_uart.h"
 430              		.file 10 "Drivers/STM32L4xx_HAL_Driver/Inc/stm32l4xx_hal_gpio.h"
 431              		.file 11 "Drivers/STM32L4xx_HAL_Driver/Inc/stm32l4xx_ll_dma.h"
 432              		.file 12 "Drivers/STM32L4xx_HAL_Driver/Inc/stm32l4xx_hal.h"
ARM GAS  /var/folders/gv/t2w3mcd17yl2fynvjl120d0m0000gn/T//ccHojmlD.s 			page 14

